VTune(TM) Performance Analyzer 2.0 for Linux*
Copyright (C) 2000-2003 Intel Corporation. All rights reserved.

Mon May 30 12:28:50 2005 WARNING: while initializing source view: Source file not found. Only Disassembly view will be available.
Legend
Address Label                    Opcode           ICACHE Flag Decoder Group Pen & Warn Flag Source                             u-ops Pen & Warn                 Jump Dest Seg
0x72a4  motion_estimation:       53               0x71        0x6a                          pushl    %ebx                      0x3                              
0x72a5                           83EC10           0x71        0x6e                          subl     $0x10, %esp               0x1                              
0x72a8                           8B5C2440         0x71        0x70                          movl     0x40(%esp), %ebx          0x1                              
0x72ac                           33C9             0x71        0x6a                          xorl     %ecx, %ecx                0x1                              
0x72ae                           8B1584890C08     0x71        0x6e                          movl     0x80c8984, %edx           0x1                              
0x72b4                           85D2             0x71        0x70                          testl    %edx, %edx                0x1                              
0x72b6                           0F8E97000000     0x71                                      jle      motion_estimation+af      0x1                              0x3
0x72bc  motion_estimation+18:    A198930C08       0x71                                      movl     0x80c9398, %eax           0x1                              
0x72c1                           89742408         0x72        0x6a                          movl     %esi, 0x8(%esp)           0x2                              
0x72c5                           8B742428         0x72        0x70                          movl     0x28(%esp), %esi          0x1                              
0x72c9                           897C2404         0x72        0x6a                          movl     %edi, 0x4(%esp)           0x2                              
0x72cd                           8B7C2424         0x72        0x70                          movl     0x24(%esp), %edi          0x1                              
0x72d1                           892C24           0x72        0x6a                          movl     %ebp, (%esp)              0x2                              
0x72d4  motion_estimation+30:    33ED             0x72        0x6e                          xorl     %ebp, %ebp                0x1                              
0x72d6                           85C0             0x72        0x70                          testl    %eax, %eax                0x1                              
0x72d8                           7E67             0x72                                      jle      motion_estimation+9d      0x1                              0x3
0x72da  motion_estimation+36:    894C240C         0x72        0x6a                          movl     %ecx, 0xc(%esp)           0x2                              
0x72de  motion_estimation+3a:    A19C930C08       0x72        0x6e                          movl     0x80c939c, %eax           0x1                              
0x72e3                           83F803           0x71        0x70                          cmpl     $0x3, %eax                0x1                              
0x72e6                           7470             0x71                                      je       motion_estimation+b4      0x1                              0x3
0x72e8  motion_estimation+44:    FF742448         0x71                                      pushl    0x48(%esp)                0x4                              
0x72ec                           FF742448         0x71                                      pushl    0x48(%esp)                0x4                              
0x72f0                           53               0x71        0x6a                          pushl    %ebx                      0x3                              
0x72f1                           8B442448         0x71        0x70                          movl     0x48(%esp), %eax          0x1                              
0x72f5                           50               0x71        0x6a                          pushl    %eax                      0x3                              
0x72f6                           8B542448         0x71        0x70                          movl     0x48(%esp), %edx          0x1                              
0x72fa                           52               0x71        0x6a                          pushl    %edx                      0x3                              
0x72fb                           8B4C2448         0x71        0x70                          movl     0x48(%esp), %ecx          0x1                              
0x72ff                           51               0x71        0x6a                          pushl    %ecx                      0x3                              
0x7300                           8B442448         0x72        0x70                          movl     0x48(%esp), %eax          0x1                              
0x7304                           50               0x72        0x6a                          pushl    %eax                      0x3                              
0x7305                           8B442428         0x72        0x70                          movl     0x28(%esp), %eax          0x1                              
0x7309                           50               0x72                                      pushl    %eax                      0x3                              
0x730a                           55               0x72                                      pushl    %ebp                      0x3                              
0x730b                           FF742450         0x72                                      pushl    0x50(%esp)                0x4                              
0x730f                           56               0x72                                      pushl    %esi                      0x3                              
0x7310                           57               0x72        0x6a                          pushl    %edi                      0x3                              
0x7311                           8B442450         0x72        0x70                          movl     0x50(%esp), %eax          0x1                              
0x7315                           50               0x72        0x6a                          pushl    %eax                      0x3                              
0x7316                           8B442450         0x72        0x70                          movl     0x50(%esp), %eax          0x1                              
0x731a                           50               0x72        0x6a                          pushl    %eax                      0x3                              
0x731b                           8B442450         0x72        0x70                          movl     0x50(%esp), %eax          0x1                              
0x731f                           50               0x72                                      pushl    %eax                      0x3                              
0x7320                           E8A1110000       0x71        0x6a                          call     field_ME                  0x4                              0x3
0x7325  motion_estimation+81:    83C43C           0x71        0x6e                          addl     $0x3c, %esp               0x1                              
0x7328  motion_estimation+84:    A198930C08       0x71        0x70                          movl     0x80c9398, %eax           0x1                              
0x732d                           83C35C           0x71        0x6a                          addl     $0x5c, %ebx               0x1                              
0x7330                           83C510           0x71        0x6e                          addl     $0x10, %ebp               0x1                              
0x7333                           3BE8             0x71        0x70                          cmpl     %eax, %ebp                0x1                              
0x7335                           7CA7             0x71                                      jnge     motion_estimation+3a      0x1                              0x3
0x7337  motion_estimation+93:    8B4C240C         0x71        0x6a                          movl     0xc(%esp), %ecx           0x1                              
0x733b                           8B1584890C08     0x71        0x6e                          movl     0x80c8984, %edx           0x1                              
0x7341  motion_estimation+9d:    83C110           0x72        0x70                          addl     $0x10, %ecx               0x1                              
0x7344                           3BCA             0x72        0x6a                          cmpl     %edx, %ecx                0x1                              
0x7346                           7C8C             0x72        0x70                          jnge     motion_estimation+30      0x1                              0x3
0x7348  motion_estimation+a4:    8B742408         0x72        0x6a                          movl     0x8(%esp), %esi           0x1                              
0x734c                           8B7C2404         0x72        0x6e                          movl     0x4(%esp), %edi           0x1                              
0x7350                           8B2C24           0x72        0x70                          movl     (%esp), %ebp              0x1                              
0x7353  motion_estimation+af:    83C410           0x72                                      addl     $0x10, %esp               0x1                              
0x7356                           5B               0x72                                      popl     %ebx                      0x2                              
0x7357                           C3               0x72                                      ret                                0x4                              
0x7358  motion_estimation+b4:    53               0x72        0x6a                          pushl    %ebx                      0x3                              
0x7359                           8B442440         0x72        0x70                          movl     0x40(%esp), %eax          0x1                              
0x735d                           50               0x72        0x6a                          pushl    %eax                      0x3                              
0x735e                           8B542440         0x72        0x70                          movl     0x40(%esp), %edx          0x1                              
0x7362                           52               0x71        0x6a                          pushl    %edx                      0x3                              
0x7363                           8B4C2440         0x71        0x70                          movl     0x40(%esp), %ecx          0x1                              
0x7367                           51               0x71        0x6a                          pushl    %ecx                      0x3                              
0x7368                           8B442440         0x71        0x70                          movl     0x40(%esp), %eax          0x1                              
0x736c                           50               0x71        0x6a                          pushl    %eax                      0x3                              
0x736d                           8B442420         0x71        0x70                          movl     0x20(%esp), %eax          0x1                              
0x7371                           50               0x71                                      pushl    %eax                      0x3                              
0x7372                           55               0x71                                      pushl    %ebp                      0x3                              
0x7373                           56               0x71                                      pushl    %esi                      0x3                              
0x7374                           57               0x71        0x6a                          pushl    %edi                      0x3                              
0x7375                           8B442444         0x71        0x70                          movl     0x44(%esp), %eax          0x1                              
0x7379                           50               0x71        0x6a                          pushl    %eax                      0x3                              
0x737a                           8B442444         0x71        0x70                          movl     0x44(%esp), %eax          0x1                              
0x737e                           50               0x71        0x6a                          pushl    %eax                      0x3                              
0x737f                           8B442444         0x71        0x70                          movl     0x44(%esp), %eax          0x1                              
0x7383                           50               0x72                                      pushl    %eax                      0x3                              
0x7384                           E829010000       0x72        0x6a                          call     frame_ME                  0x4                              0x3
0x7389  motion_estimation+e5:    83C430           0x72        0x6e                          addl     $0x30, %esp               0x1                              
0x738c                           EB9A             0x72        0x70                          jmp      motion_estimation+84      0x1                              0x3
0x738e  ptmotion_estimation:     57               0x72                                      pushl    %edi                      0x3                              
0x738f                           55               0x72        0x6a                          pushl    %ebp                      0x3                              
0x7390                           83EC0C           0x72        0x6e                          subl     $0xc, %esp                0x1                              
0x7393                           8B54244C         0x72        0x70                          movl     0x4c(%esp), %edx          0x1                              
0x7397                           A198930C08       0x72        0x6a                          movl     0x80c9398, %eax           0x1                              
0x739c                           8BFA             0x72        0x6e                          movl     %edx, %edi                0x1                              
0x739e                           C1FF04           0x72        0x70                          sarl     $0x4, %edi                0x1                              
0x73a1                           8BC8             0x71        0x6a                          movl     %eax, %ecx                0x1                              
0x73a3                           C1F904           0x71        0x6e                          sarl     $0x4, %ecx                0x1                              
0x73a6                           8D2C09           0x71        0x70                          leal     (%ecx, %ecx, 1), %ebp     0x1                              
0x73a9                           03ED             0x71        0x6a                          addl     %ebp, %ebp                0x1                              
0x73ab                           2BE9             0x71        0x6e                          subl     %ecx, %ebp                0x1                              
0x73ad                           03ED             0x71        0x70                          addl     %ebp, %ebp                0x1                              
0x73af                           03ED             0x71        0x6a                          addl     %ebp, %ebp                0x1                              
0x73b1                           03ED             0x71        0x6e                          addl     %ebp, %ebp                0x1                              
0x73b3                           2BE9             0x71        0x70                          subl     %ecx, %ebp                0x1                              
0x73b5                           8B4C2450         0x71        0x6a                          movl     0x50(%esp), %ecx          0x1                              
0x73b9                           03ED             0x71        0x6e                          addl     %ebp, %ebp                0x1                              
0x73bb                           03ED             0x71        0x70                          addl     %ebp, %ebp                0x1                              
0x73bd                           0FAFEF           0x71                                      imull    %edi, %ebp                0x1                              
0x73c0                           036C2440         0x72        0x6a                          addl     0x40(%esp), %ebp          0x2                              
0x73c4                           3BD1             0x72        0x6e                          cmpl     %ecx, %edx                0x1                              
0x73c6                           0F8D90000000     0x72        0x70                          jge      ptmotion_estimation+ce    0x1                              0x3
0x73cc  ptmotion_estimation+3e:  8B4C2450         0x72        0x6a                          movl     0x50(%esp), %ecx          0x1                              
0x73d0                           8B7C2424         0x72        0x70                          movl     0x24(%esp), %edi          0x1                              
0x73d4                           891C24           0x72                                      movl     %ebx, (%esp)              0x2                              
0x73d7                           89742404         0x72        0x6a                          movl     %esi, 0x4(%esp)           0x2                              
0x73db                           8B742428         0x72        0x6e                          movl     0x28(%esp), %esi          0x1                              
0x73df  ptmotion_estimation+51:  33DB             0x72        0x70                          xorl     %ebx, %ebx                0x1                              
0x73e1                           85C0             0x71        0x6a                          testl    %eax, %eax                0x1                              
0x73e3                           7E69             0x71        0x70                          jle      ptmotion_estimation+c0    0x1                              0x3
0x73e5  ptmotion_estimation+57:  89542408         0x71        0x6a                          movl     %edx, 0x8(%esp)           0x2                              
0x73e9  ptmotion_estimation+5b:  A19C930C08       0x71        0x6e                          movl     0x80c939c, %eax           0x1                              
0x73ee                           83F803           0x71        0x70                          cmpl     $0x3, %eax                0x1                              
0x73f1                           0F8484000000     0x71                                      je       ptmotion_estimation+ed    0x1                              0x3
0x73f7  ptmotion_estimation+69:  FF742448         0x71                                      pushl    0x48(%esp)                0x4                              
0x73fb                           FF742448         0x71                                      pushl    0x48(%esp)                0x4                              
0x73ff                           55               0x71        0x6a                          pushl    %ebp                      0x3                              
0x7400                           8B442448         0x72        0x70                          movl     0x48(%esp), %eax          0x1                              
0x7404                           50               0x72        0x6a                          pushl    %eax                      0x3                              
0x7405                           8B542448         0x72        0x70                          movl     0x48(%esp), %edx          0x1                              
0x7409                           52               0x72        0x6a                          pushl    %edx                      0x3                              
0x740a                           8B4C2448         0x72        0x70                          movl     0x48(%esp), %ecx          0x1                              
0x740e                           51               0x72        0x6a                          pushl    %ecx                      0x3                              
0x740f                           8B442448         0x72        0x70                          movl     0x48(%esp), %eax          0x1                              
0x7413                           50               0x72        0x6a                          pushl    %eax                      0x3                              
0x7414                           8B442424         0x72        0x70                          movl     0x24(%esp), %eax          0x1                              
0x7418                           50               0x72                                      pushl    %eax                      0x3                              
0x7419                           53               0x72                                      pushl    %ebx                      0x3                              
0x741a                           FF742450         0x72                                      pushl    0x50(%esp)                0x4                              
0x741e                           56               0x72                                      pushl    %esi                      0x3                              
0x741f                           57               0x72        0x6a                          pushl    %edi                      0x3                              
0x7420                           8B442450         0x71        0x70                          movl     0x50(%esp), %eax          0x1                              
0x7424                           50               0x71        0x6a                          pushl    %eax                      0x3                              
0x7425                           8B442450         0x71        0x70                          movl     0x50(%esp), %eax          0x1                              
0x7429                           50               0x71        0x6a                          pushl    %eax                      0x3                              
0x742a                           8B442450         0x71        0x70                          movl     0x50(%esp), %eax          0x1                              
0x742e                           50               0x71                                      pushl    %eax                      0x3                              
0x742f                           E892100000       0x71        0x6a                          call     field_ME                  0x4                              0x3
0x7434  ptmotion_estimation+a6:  83C43C           0x71        0x6e                          addl     $0x3c, %esp               0x1                              
0x7437  ptmotion_estimation+a9:  A198930C08       0x71        0x70                          movl     0x80c9398, %eax           0x1                              
0x743c                           83C55C           0x71        0x6a                          addl     $0x5c, %ebp               0x1                              
0x743f                           83C310           0x71        0x6e                          addl     $0x10, %ebx               0x1                              
0x7442                           3BD8             0x72        0x70                          cmpl     %eax, %ebx                0x1                              
0x7444                           7CA3             0x72                                      jnge     ptmotion_estimation+5b    0x1                              0x3
0x7446  ptmotion_estimation+b8:  8B4C2450         0x72        0x6a                          movl     0x50(%esp), %ecx          0x1                              
0x744a                           8B542408         0x72        0x6e                          movl     0x8(%esp), %edx           0x1                              
0x744e  ptmotion_estimation+c0:  83C210           0x72        0x70                          addl     $0x10, %edx               0x1                              
0x7451                           3BD1             0x72        0x6a                          cmpl     %ecx, %edx                0x1                              
0x7453                           7C8A             0x72        0x70                          jnge     ptmotion_estimation+51    0x1                              0x3
0x7455  ptmotion_estimation+c7:  8B1C24           0x72        0x6a                          movl     (%esp), %ebx              0x1                              
0x7458                           8B742404         0x72        0x6e                          movl     0x4(%esp), %esi           0x1                              
0x745c  ptmotion_estimation+ce:  A1FC880C08       0x72        0x70                          movl     0x80c88fc, %eax           0x1                              
0x7461                           85C0             0x71        0x6a                          testl    %eax, %eax                0x1                              
0x7463                           7510             0x71        0x70                          jnz      ptmotion_estimation+e7    0x1                              0x3
0x7465  ptmotion_estimation+d7:  FF3504630C08     0x71                                      pushl    0x80c6304                 0x4                              
0x746b                           6A0A             0x71                                      pushl    $0xa                      0x3                              
0x746d                           E83E720100       0x71        0x6a                          call     fputc                     0x4                              0x3
0x7472  ptmotion_estimation+e4:  83C408           0x71        0x6e                          addl     $0x8, %esp                0x1                              
0x7475  ptmotion_estimation+e7:  83C40C           0x71        0x70                          addl     $0xc, %esp                0x1                              
0x7478                           5D               0x71                                      popl     %ebp                      0x2                              
0x7479                           5F               0x71                                      popl     %edi                      0x2                              
0x747a                           C3               0x71                                      ret                                0x4                              
0x747b  ptmotion_estimation+ed:  55               0x71        0x6a                          pushl    %ebp                      0x3                              
0x747c                           8B442440         0x71        0x70                          movl     0x40(%esp), %eax          0x1                              
0x7480                           50               0x72        0x6a                          pushl    %eax                      0x3                              
0x7481                           8B542440         0x72        0x70                          movl     0x40(%esp), %edx          0x1                              
0x7485                           52               0x72        0x6a                          pushl    %edx                      0x3                              
0x7486                           8B4C2440         0x72        0x70                          movl     0x40(%esp), %ecx          0x1                              
0x748a                           51               0x72        0x6a                          pushl    %ecx                      0x3                              
0x748b                           8B442440         0x72        0x70                          movl     0x40(%esp), %eax          0x1                              
0x748f                           50               0x72        0x6a                          pushl    %eax                      0x3                              
0x7490                           8B44241C         0x72        0x70                          movl     0x1c(%esp), %eax          0x1                              
0x7494                           50               0x72                                      pushl    %eax                      0x3                              
0x7495                           53               0x72                                      pushl    %ebx                      0x3                              
0x7496                           56               0x72                                      pushl    %esi                      0x3                              
0x7497                           57               0x72        0x6a                          pushl    %edi                      0x3                              
0x7498                           8B442444         0x72        0x70                          movl     0x44(%esp), %eax          0x1                              
0x749c                           50               0x72        0x6a                          pushl    %eax                      0x3                              
0x749d                           8B442444         0x72        0x70                          movl     0x44(%esp), %eax          0x1                              
0x74a1                           50               0x71        0x6a                          pushl    %eax                      0x3                              
0x74a2                           8B442444         0x71        0x70                          movl     0x44(%esp), %eax          0x1                              
0x74a6                           50               0x71                                      pushl    %eax                      0x3                              
0x74a7                           E806000000       0x71        0x6a                          call     frame_ME                  0x4                              0x3
0x74ac  ptmotion_estimation+11e: 83C430           0x71        0x6e                          addl     $0x30, %esp               0x1                              
0x74af                           EB86             0x71        0x70                          jmp      ptmotion_estimation+a9    0x1                              0x3
0x74b1  ptmotion_estimation+123: 90               0x71                                      nop                                0x1                              
0x74b2  frame_ME:                57               0x71                                      pushl    %edi                      0x3                              
0x74b3                           56               0x71                                      pushl    %esi                      0x3                              
0x74b4                           55               0x71                                      pushl    %ebp                      0x3                              
0x74b5                           53               0x71        0x6a                          pushl    %ebx                      0x3                              
0x74b6                           81ECCC000000     0x71        0x6e                          subl     $0xcc, %esp               0x1                              
0x74bc                           8B8424F0000000   0x71        0x70                          movl     0xf0(%esp), %eax          0x1                              
0x74c3                           8B9424F4000000   0x72        0x6a                          movl     0xf4(%esp), %edx          0x1                              
0x74ca                           8B1D98930C08     0x72        0x6e                          movl     0x80c9398, %ebx           0x1                              
0x74d0                           8BCB             0x72        0x70                          movl     %ebx, %ecx                0x1                              
0x74d2                           0FAF8C24F8000000 0x72                                      imull    0xf8(%esp), %ecx          0x2                              
0x74da                           8D2C10           0x72                                      leal     (%eax, %edx, 1), %ebp     0x1                              
0x74dd                           53               0x72        0x6a                          pushl    %ebx                      0x3                              
0x74de                           03E9             0x72        0x70                          addl     %ecx, %ebp                0x1                              
0x74e0                           55               0x71                                      pushl    %ebp                      0x3                              
0x74e1                           E8E4490000       0x71                                      call     variance                  0x4                              0x3
0x74e6  frame_ME+34:             89442414         0x71        0x6a                          movl     %eax, 0x14(%esp)          0x2                              
0x74ea                           83C408           0x71        0x6e                          addl     $0x8, %esp                0x1                              
0x74ed                           A1A48A0C08       0x71        0x70                          movl     0x80c8aa4, %eax           0x1                              
0x74f2                           83F801           0x71        0x6a                          cmpl     $0x1, %eax                0x1                              
0x74f5                           0F84B80F0000     0x71        0x70                          je       frame_ME+1001             0x1                              0x3
0x74fb  frame_ME+49:             83F802           0x71        0x6a                          cmpl     $0x2, %eax                0x1                              
0x74fe                           0F84B10A0000     0x71        0x70                          je       frame_ME+b03              0x1                              0x3
0x7504  frame_ME+52:             A1188B0C08       0x72        0x6a                          movl     0x80c8b18, %eax           0x1                              
0x7509                           85C0             0x72        0x6e                          testl    %eax, %eax                0x1                              
0x750b                           0F84FF010000     0x72        0x70                          je       frame_ME+25e              0x1                              0x3
0x7511  frame_ME+5f:             A198930C08       0x72        0x6a                          movl     0x80c9398, %eax           0x1                              
0x7516                           8D4C2460         0x72        0x6e                          leal     0x60(%esp), %ecx          0x1                              
0x751a                           8D54245C         0x72        0x70                          leal     0x5c(%esp), %edx          0x1                              
0x751e                           52               0x72                                      pushl    %edx                      0x3                              
0x751f                           51               0x72                                      pushl    %ecx                      0x3                              
0x7520                           FF3590930C08     0x71                                      pushl    0x80c9390                 0x4                              
0x7526                           50               0x71                                      pushl    %eax                      0x3                              
0x7527                           6A10             0x71        0x6a                          pushl    $0x10                     0x3                              
0x7529                           8B9C2414010000   0x71        0x70                          movl     0x114(%esp), %ebx         0x1                              
0x7530                           53               0x71        0x6a                          pushl    %ebx                      0x3                              
0x7531                           8BB42414010000   0x71        0x70                          movl     0x114(%esp), %esi         0x1                              
0x7538                           56               0x71        0x6a                          pushl    %esi                      0x3                              
0x7539                           8BBC2414010000   0x71        0x70                          movl     0x114(%esp), %edi         0x1                              
0x7540                           57               0x72        0x6a                          pushl    %edi                      0x3                              
0x7541                           8B942414010000   0x72        0x70                          movl     0x114(%esp), %edx         0x1                              
0x7548                           52               0x72                                      pushl    %edx                      0x3                              
0x7549                           50               0x72                                      pushl    %eax                      0x3                              
0x754a                           55               0x72        0x6a                          pushl    %ebp                      0x3                              
0x754b                           8B842414010000   0x72        0x70                          movl     0x114(%esp), %eax         0x1                              
0x7552                           50               0x72        0x6a                          pushl    %eax                      0x3                              
0x7553                           8B842410010000   0x72        0x70                          movl     0x110(%esp), %eax         0x1                              
0x755a                           50               0x72                                      pushl    %eax                      0x3                              
0x755b                           E8F22E0000       0x72        0x6a                          call     fullsearch                0x4                              0x3
0x7560  frame_ME+ae:             8B1D98930C08     0x71        0x6e                          movl     0x80c9398, %ebx           0x1                              
0x7566                           8B8C2494000000   0x71        0x70                          movl     0x94(%esp), %ecx          0x1                              
0x756d                           8B942490000000   0x71                                      movl     0x90(%esp), %edx          0x1                              
0x7574                           8944247C         0x71        0x6a                          movl     %eax, 0x7c(%esp)          0x2                              
0x7578                           8BF1             0x71        0x6e                          movl     %ecx, %esi                0x1                              
0x757a                           D1FE             0x71        0x70                          sarl     0x1, %esi                 0x1                              
0x757c                           8BC2             0x71        0x6a                          movl     %edx, %eax                0x1                              
0x757e                           D1F8             0x71        0x6e                          sarl     0x1, %eax                 0x1                              
0x7580                           0FAFC3           0x72        0x70                          imull    %ebx, %eax                0x1                              
0x7583                           83E101           0x72        0x6a                          andl     $0x1, %ecx                0x1                              
0x7586                           83E201           0x72        0x6e                          andl     $0x1, %edx                0x1                              
0x7589                           03F0             0x72        0x70                          addl     %eax, %esi                0x1                              
0x758b                           03B4241C010000   0x72                                      addl     0x11c(%esp), %esi         0x2                              
0x7592                           6A10             0x72                                      pushl    $0x10                     0x3                              
0x7594                           52               0x72                                      pushl    %edx                      0x3                              
0x7595                           51               0x72                                      pushl    %ecx                      0x3                              
0x7596                           53               0x72                                      pushl    %ebx                      0x3                              
0x7597                           55               0x72                                      pushl    %ebp                      0x3                              
0x7598                           56               0x72                                      pushl    %esi                      0x3                              
0x7599                           E8783E0000       0x72        0x6a                          call     dist2                     0x4                              0x3
0x759e  frame_ME+ec:             8BD8             0x72        0x6e                          movl     %eax, %ebx                0x1                              
0x75a0                           83C44C           0x71        0x70                          addl     $0x4c, %esp               0x1                              
0x75a3                           8B1598930C08     0x71        0x6a                          movl     0x80c9398, %edx           0x1                              
0x75a9                           8DB42488000000   0x71        0x6e                          leal     0x88(%esp), %esi          0x1                              
0x75b0                           8D8C2484000000   0x71        0x70                          leal     0x84(%esp), %ecx          0x1                              
0x75b7                           51               0x71                                      pushl    %ecx                      0x3                              
0x75b8                           56               0x71                                      pushl    %esi                      0x3                              
0x75b9                           FF3590930C08     0x71                                      pushl    0x80c9390                 0x4                              
0x75bf                           52               0x71                                      pushl    %edx                      0x3                              
0x75c0                           6A10             0x72        0x6a                          pushl    $0x10                     0x3                              
0x75c2                           8BBC241C010000   0x72        0x70                          movl     0x11c(%esp), %edi         0x1                              
0x75c9                           57               0x72        0x6a                          pushl    %edi                      0x3                              
0x75ca                           8B8C241C010000   0x72        0x70                          movl     0x11c(%esp), %ecx         0x1                              
0x75d1                           51               0x72        0x6a                          pushl    %ecx                      0x3                              
0x75d2                           8B8C2414010000   0x72        0x70                          movl     0x114(%esp), %ecx         0x1                              
0x75d9                           51               0x72        0x6a                          pushl    %ecx                      0x3                              
0x75da                           8B8C2414010000   0x72        0x70                          movl     0x114(%esp), %ecx         0x1                              
0x75e1                           51               0x71                                      pushl    %ecx                      0x3                              
0x75e2                           52               0x71                                      pushl    %edx                      0x3                              
0x75e3                           55               0x71        0x6a                          pushl    %ebp                      0x3                              
0x75e4                           8B942418010000   0x71        0x70                          movl     0x118(%esp), %edx         0x1                              
0x75eb                           52               0x71        0x6a                          pushl    %edx                      0x3                              
0x75ec                           8B942414010000   0x71        0x70                          movl     0x114(%esp), %edx         0x1                              
0x75f3                           52               0x71                                      pushl    %edx                      0x3                              
0x75f4                           E8592E0000       0x71        0x6a                          call     fullsearch                0x4                              0x3
0x75f9  frame_ME+147:            8B3D98930C08     0x71        0x6e                          movl     0x80c9398, %edi           0x1                              
0x75ff                           8BB424BC000000   0x71        0x70                          movl     0xbc(%esp), %esi          0x1                              
0x7606                           8B8C24B8000000   0x72                                      movl     0xb8(%esp), %ecx          0x1                              
0x760d                           898424A4000000   0x72        0x6a                          movl     %eax, 0xa4(%esp)          0x2                              
0x7614                           8BC6             0x72        0x6e                          movl     %esi, %eax                0x1                              
0x7616                           D1F8             0x72        0x70                          sarl     0x1, %eax                 0x1                              
0x7618                           8BD1             0x72        0x6a                          movl     %ecx, %edx                0x1                              
0x761a                           D1FA             0x72        0x6e                          sarl     0x1, %edx                 0x1                              
0x761c                           0FAFD7           0x72        0x70                          imull    %edi, %edx                0x1                              
0x761f                           83E601           0x72        0x6a                          andl     $0x1, %esi                0x1                              
0x7622                           83E101           0x71        0x6e                          andl     $0x1, %ecx                0x1                              
0x7625                           03C2             0x71        0x70                          addl     %edx, %eax                0x1                              
0x7627                           03842420010000   0x71                                      addl     0x120(%esp), %eax         0x2                              
0x762e                           6A10             0x71                                      pushl    $0x10                     0x3                              
0x7630                           51               0x71                                      pushl    %ecx                      0x3                              
0x7631                           56               0x71                                      pushl    %esi                      0x3                              
0x7632                           57               0x71                                      pushl    %edi                      0x3                              
0x7633                           55               0x71                                      pushl    %ebp                      0x3                              
0x7634                           50               0x71                                      pushl    %eax                      0x3                              
0x7635                           E8DC3D0000       0x71                                      call     dist2                     0x4                              0x3
0x763a  frame_ME+188:            89442450         0x71        0x6a                          movl     %eax, 0x50(%esp)          0x2                              
0x763e                           8B8C24AC000000   0x71        0x6e                          movl     0xac(%esp), %ecx          0x1                              
0x7645                           8B9424A8000000   0x72        0x70                          movl     0xa8(%esp), %edx          0x1                              
0x764c                           896C245C         0x72        0x6a                          movl     %ebp, 0x5c(%esp)          0x2                              
0x7650                           8BF1             0x72        0x70                          movl     %ecx, %esi                0x1                              
0x7652                           895C2454         0x72        0x6a                          movl     %ebx, 0x54(%esp)          0x2                              
0x7656                           8B1D98930C08     0x72        0x6e                          movl     0x80c9398, %ebx           0x1                              
0x765c                           D1FE             0x72        0x70                          sarl     0x1, %esi                 0x1                              
0x765e                           83E101           0x72        0x6a                          andl     $0x1, %ecx                0x1                              
0x7661                           8BEA             0x71        0x6e                          movl     %edx, %ebp                0x1                              
0x7663                           D1FD             0x71        0x70                          sarl     0x1, %ebp                 0x1                              
0x7665                           0FAFEB           0x71        0x6a                          imull    %ebx, %ebp                0x1                              
0x7668                           83E201           0x71        0x6e                          andl     $0x1, %edx                0x1                              
0x766b                           03F5             0x71        0x70                          addl     %ebp, %esi                0x1                              
0x766d                           03B42434010000   0x71        0x6a                          addl     0x134(%esp), %esi         0x2                              
0x7674                           8BAC24D0000000   0x71        0x70                          movl     0xd0(%esp), %ebp          0x1                              
0x767b                           8974244C         0x71        0x6a                          movl     %esi, 0x4c(%esp)          0x2                              
0x767f                           8BB424D4000000   0x71        0x6e                          movl     0xd4(%esp), %esi          0x1                              
0x7686                           8BC6             0x72        0x70                          movl     %esi, %eax                0x1                              
0x7688                           D1F8             0x72        0x6a                          sarl     0x1, %eax                 0x1                              
0x768a                           83E601           0x72        0x6e                          andl     $0x1, %esi                0x1                              
0x768d                           8BFD             0x72        0x70                          movl     %ebp, %edi                0x1                              
0x768f                           D1FF             0x72        0x6a                          sarl     0x1, %edi                 0x1                              
0x7691                           0FAFFB           0x72        0x6e                          imull    %ebx, %edi                0x1                              
0x7694                           83E501           0x72        0x70                          andl     $0x1, %ebp                0x1                              
0x7697                           03C7             0x72                                      addl     %edi, %eax                0x1                              
0x7699                           03842438010000   0x72                                      addl     0x138(%esp), %eax         0x2                              
0x76a0                           6A10             0x71                                      pushl    $0x10                     0x3                              
0x76a2                           55               0x71                                      pushl    %ebp                      0x3                              
0x76a3                           56               0x71                                      pushl    %esi                      0x3                              
0x76a4                           52               0x71                                      pushl    %edx                      0x3                              
0x76a5                           51               0x71                                      pushl    %ecx                      0x3                              
0x76a6                           53               0x71        0x6a                          pushl    %ebx                      0x3                              
0x76a7                           8B542474         0x71        0x70                          movl     0x74(%esp), %edx          0x1                              
0x76ab                           52               0x71                                      pushl    %edx                      0x3                              
0x76ac                           50               0x71        0x6a                          pushl    %eax                      0x3                              
0x76ad                           8B44246C         0x71        0x70                          movl     0x6c(%esp), %eax          0x1                              
0x76b1                           50               0x71        0x6a                          pushl    %eax                      0x3                              
0x76b2                           8B5C2478         0x71        0x70                          movl     0x78(%esp), %ebx          0x1                              
0x76b6                           E84B460000       0x71        0x6a                          call     bdist2                    0x4                              0x3
0x76bb  frame_ME+209:            83C470           0x71        0x6e                          addl     $0x70, %esp               0x1                              
0x76be                           8B542404         0x71        0x70                          movl     0x4(%esp), %edx           0x1                              
0x76c2                           3BDA             0x72        0x6a                          cmpl     %edx, %ebx                0x1                              
0x76c4                           7F13             0x72        0x70                          jg       frame_ME+227              0x1                              0x3
0x76c6  frame_ME+214:            3BD8             0x72        0x6a                          cmpl     %eax, %ebx                0x1                              
0x76c8                           7F0F             0x72        0x70                          jg       frame_ME+227              0x1                              0x3
0x76ca  frame_ME+218:            8B94240C010000   0x72                                      movl     0x10c(%esp), %edx         0x1                              
0x76d1                           C70208000000     0x72        0x6a                          movl     $0x8, (%edx)              0x2                              
0x76d7                           EB24             0x72        0x6e                          jmp      frame_ME+24b              0x1                              0x3
0x76d9  frame_ME+227:            3BD0             0x72        0x70                          cmpl     %eax, %edx                0x1                              
0x76db                           7F11             0x72                                      jg       frame_ME+23c              0x1                              0x3
0x76dd  frame_ME+22b:            8BDA             0x72        0x6a                          movl     %edx, %ebx                0x1                              
0x76df                           8B94240C010000   0x72        0x70                          movl     0x10c(%esp), %edx         0x1                              
0x76e6                           C70204000000     0x71        0x6a                          movl     $0x4, (%edx)              0x2                              
0x76ec                           EB0F             0x71        0x6e                          jmp      frame_ME+24b              0x1                              0x3
0x76ee  frame_ME+23c:            8B94240C010000   0x71        0x70                          movl     0x10c(%esp), %edx         0x1                              
0x76f5                           C7020C000000     0x71        0x6a                          movl     $0xc, (%edx)              0x2                              
0x76fb                           8BD8             0x71        0x6e                          movl     %eax, %ebx                0x1                              
0x76fd  frame_ME+24b:            8B94240C010000   0x71        0x70                          movl     0x10c(%esp), %edx         0x1                              
0x7704                           C7420402000000   0x72        0x6a                          movl     $0x2, 0x4(%edx)           0x2                              
0x770b                           E98B070000       0x72        0x6e                          jmp      frame_ME+9e9              0x1                              0x3
0x7710  frame_ME+25e:            8D7C2448         0x72        0x70                          leal     0x48(%esp), %edi          0x1                              
0x7714                           8D742444         0x72        0x6a                          leal     0x44(%esp), %esi          0x1                              
0x7718                           8D5C2440         0x72        0x6e                          leal     0x40(%esp), %ebx          0x1                              
0x771c                           8D4C243C         0x72        0x70                          leal     0x3c(%esp), %ecx          0x1                              
0x7720                           8D54242C         0x71        0x6a                          leal     0x2c(%esp), %edx          0x1                              
0x7724                           8D44241C         0x71        0x70                          leal     0x1c(%esp), %eax          0x1                              
0x7728                           50               0x71                                      pushl    %eax                      0x3                              
0x7729                           52               0x71                                      pushl    %edx                      0x3                              
0x772a                           51               0x71                                      pushl    %ecx                      0x3                              
0x772b                           53               0x71                                      pushl    %ebx                      0x3                              
0x772c                           56               0x71                                      pushl    %esi                      0x3                              
0x772d                           57               0x71        0x6a                          pushl    %edi                      0x3                              
0x772e                           8D442464         0x71        0x70                          leal     0x64(%esp), %eax          0x1                              
0x7732                           50               0x71        0x6a                          pushl    %eax                      0x3                              
0x7733                           8D44246C         0x71        0x70                          leal     0x6c(%esp), %eax          0x1                              
0x7737                           50               0x71        0x6a                          pushl    %eax                      0x3                              
0x7738                           8D442474         0x71        0x70                          leal     0x74(%esp), %eax          0x1                              
0x773c                           50               0x71        0x6a                          pushl    %eax                      0x3                              
0x773d                           8D44247C         0x71        0x70                          leal     0x7c(%esp), %eax          0x1                              
0x7741                           50               0x72        0x6a                          pushl    %eax                      0x3                              
0x7742                           8D842484000000   0x72        0x70                          leal     0x84(%esp), %eax          0x1                              
0x7749                           50               0x72        0x6a                          pushl    %eax                      0x3                              
0x774a                           8D84248C000000   0x72        0x70                          leal     0x8c(%esp), %eax          0x1                              
0x7751                           50               0x72        0x6a                          pushl    %eax                      0x3                              
0x7752                           8B842430010000   0x72        0x70                          movl     0x130(%esp), %eax         0x1                              
0x7759                           50               0x72        0x6a                          pushl    %eax                      0x3                              
0x775a                           8B842430010000   0x72        0x70                          movl     0x130(%esp), %eax         0x1                              
0x7761                           50               0x71        0x6a                          pushl    %eax                      0x3                              
0x7762                           8B842430010000   0x71        0x70                          movl     0x130(%esp), %eax         0x1                              
0x7769                           50               0x71        0x6a                          pushl    %eax                      0x3                              
0x776a                           8B842430010000   0x71        0x70                          movl     0x130(%esp), %eax         0x1                              
0x7771                           50               0x71                                      pushl    %eax                      0x3                              
0x7772                           55               0x71        0x6a                          pushl    %ebp                      0x3                              
0x7773                           8B84242C010000   0x71        0x70                          movl     0x12c(%esp), %eax         0x1                              
0x777a                           50               0x71        0x6a                          pushl    %eax                      0x3                              
0x777b                           8B842428010000   0x71        0x70                          movl     0x128(%esp), %eax         0x1                              
0x7782                           50               0x72                                      pushl    %eax                      0x3                              
0x7783                           E8601E0000       0x72        0x6a                          call     frame_estimate            0x4                              0x3
0x7788  frame_ME+2d6:            83C44C           0x72        0x6e                          addl     $0x4c, %esp               0x1                              
0x778b                           8D7C2470         0x72        0x70                          leal     0x70(%esp), %edi          0x1                              
0x778f                           8D74246C         0x72        0x6a                          leal     0x6c(%esp), %esi          0x1                              
0x7793                           8D5C2468         0x72        0x6e                          leal     0x68(%esp), %ebx          0x1                              
0x7797                           8D4C2464         0x72        0x70                          leal     0x64(%esp), %ecx          0x1                              
0x779b                           8D54242C         0x72        0x6a                          leal     0x2c(%esp), %edx          0x1                              
0x779f                           8D44241C         0x72        0x70                          leal     0x1c(%esp), %eax          0x1                              
0x77a3                           50               0x71                                      pushl    %eax                      0x3                              
0x77a4                           52               0x71                                      pushl    %edx                      0x3                              
0x77a5                           51               0x71                                      pushl    %ecx                      0x3                              
0x77a6                           53               0x71                                      pushl    %ebx                      0x3                              
0x77a7                           56               0x71                                      pushl    %esi                      0x3                              
0x77a8                           57               0x71        0x6a                          pushl    %edi                      0x3                              
0x77a9                           8D84248C000000   0x71        0x70                          leal     0x8c(%esp), %eax          0x1                              
0x77b0                           50               0x71        0x6a                          pushl    %eax                      0x3                              
0x77b1                           8D842494000000   0x71        0x70                          leal     0x94(%esp), %eax          0x1                              
0x77b8                           50               0x71        0x6a                          pushl    %eax                      0x3                              
0x77b9                           8D84249C000000   0x71        0x70                          leal     0x9c(%esp), %eax          0x1                              
0x77c0                           50               0x72        0x6a                          pushl    %eax                      0x3                              
0x77c1                           8D8424A4000000   0x72        0x70                          leal     0xa4(%esp), %eax          0x1                              
0x77c8                           50               0x72        0x6a                          pushl    %eax                      0x3                              
0x77c9                           8D8424AC000000   0x72        0x70                          leal     0xac(%esp), %eax          0x1                              
0x77d0                           50               0x72        0x6a                          pushl    %eax                      0x3                              
0x77d1                           8D8424B4000000   0x72        0x70                          leal     0xb4(%esp), %eax          0x1                              
0x77d8                           50               0x72        0x6a                          pushl    %eax                      0x3                              
0x77d9                           8B842438010000   0x72        0x70                          movl     0x138(%esp), %eax         0x1                              
0x77e0                           50               0x71        0x6a                          pushl    %eax                      0x3                              
0x77e1                           8B842438010000   0x71        0x70                          movl     0x138(%esp), %eax         0x1                              
0x77e8                           50               0x71        0x6a                          pushl    %eax                      0x3                              
0x77e9                           8B842430010000   0x71        0x70                          movl     0x130(%esp), %eax         0x1                              
0x77f0                           50               0x71        0x6a                          pushl    %eax                      0x3                              
0x77f1                           8B842430010000   0x71        0x70                          movl     0x130(%esp), %eax         0x1                              
0x77f8                           50               0x71                                      pushl    %eax                      0x3                              
0x77f9                           55               0x71        0x6a                          pushl    %ebp                      0x3                              
0x77fa                           8B842430010000   0x71        0x70                          movl     0x130(%esp), %eax         0x1                              
0x7801                           50               0x72        0x6a                          pushl    %eax                      0x3                              
0x7802                           8B84242C010000   0x72        0x70                          movl     0x12c(%esp), %eax         0x1                              
0x7809                           50               0x72                                      pushl    %eax                      0x3                              
0x780a                           E8D91D0000       0x72        0x6a                          call     frame_estimate            0x4                              0x3
0x780f  frame_ME+35d:            8B0D98930C08     0x72        0x6e                          movl     0x80c9398, %ecx           0x1                              
0x7815                           8B9424AC000000   0x72        0x70                          movl     0xac(%esp), %edx          0x1                              
0x781c                           896C245C         0x72        0x6a                          movl     %ebp, 0x5c(%esp)          0x2                              
0x7820                           8BAC24A8000000   0x71        0x6e                          movl     0xa8(%esp), %ebp          0x1                              
0x7827                           8BF2             0x71        0x70                          movl     %edx, %esi                0x1                              
0x7829                           D1FE             0x71        0x6a                          sarl     0x1, %esi                 0x1                              
0x782b                           83E201           0x71        0x6e                          andl     $0x1, %edx                0x1                              
0x782e                           8BDD             0x71        0x70                          movl     %ebp, %ebx                0x1                              
0x7830                           D1FB             0x71        0x6a                          sarl     0x1, %ebx                 0x1                              
0x7832                           0FAFD9           0x71        0x6e                          imull    %ecx, %ebx                0x1                              
0x7835                           83E501           0x71        0x70                          andl     $0x1, %ebp                0x1                              
0x7838                           03F3             0x71                                      addl     %ebx, %esi                0x1                              
0x783a                           03B42434010000   0x71        0x6a                          addl     0x134(%esp), %esi         0x2                              
0x7841                           8B9C24D0000000   0x72        0x70                          movl     0xd0(%esp), %ebx          0x1                              
0x7848                           89742454         0x72        0x6a                          movl     %esi, 0x54(%esp)          0x2                              
0x784c                           8BB424D4000000   0x72        0x6e                          movl     0xd4(%esp), %esi          0x1                              
0x7853                           8BC6             0x72        0x70                          movl     %esi, %eax                0x1                              
0x7855                           D1F8             0x72        0x6a                          sarl     0x1, %eax                 0x1                              
0x7857                           83E601           0x72        0x6e                          andl     $0x1, %esi                0x1                              
0x785a                           8BFB             0x72        0x70                          movl     %ebx, %edi                0x1                              
0x785c                           D1FF             0x72        0x6a                          sarl     0x1, %edi                 0x1                              
0x785e                           0FAFF9           0x72        0x6e                          imull    %ecx, %edi                0x1                              
0x7861                           83E301           0x71        0x70                          andl     $0x1, %ebx                0x1                              
0x7864                           03C7             0x71                                      addl     %edi, %eax                0x1                              
0x7866                           03842438010000   0x71                                      addl     0x138(%esp), %eax         0x2                              
0x786d                           6A10             0x71                                      pushl    $0x10                     0x3                              
0x786f                           53               0x71                                      pushl    %ebx                      0x3                              
0x7870                           56               0x71                                      pushl    %esi                      0x3                              
0x7871                           55               0x71                                      pushl    %ebp                      0x3                              
0x7872                           52               0x71                                      pushl    %edx                      0x3                              
0x7873                           51               0x71        0x6a                          pushl    %ecx                      0x3                              
0x7874                           8B6C2474         0x71        0x70                          movl     0x74(%esp), %ebp          0x1                              
0x7878                           55               0x71                                      pushl    %ebp                      0x3                              
0x7879                           50               0x71        0x6a                          pushl    %eax                      0x3                              
0x787a                           8B442474         0x71        0x70                          movl     0x74(%esp), %eax          0x1                              
0x787e                           50               0x71                                      pushl    %eax                      0x3                              
0x787f                           E8AC420000       0x71                                      call     bdist1                    0x4                              0x3
0x7884  frame_ME+3d2:            89442474         0x72        0x6a                          movl     %eax, 0x74(%esp)          0x2                              
0x7888                           83C470           0x72        0x6e                          addl     $0x70, %esp               0x1                              
0x788b                           8B1D98930C08     0x72        0x70                          movl     0x80c9398, %ebx           0x1                              
0x7891                           8B442440         0x72        0x6a                          movl     0x40(%esp), %eax          0x1                              
0x7895                           85C0             0x72        0x6e                          testl    %eax, %eax                0x1                              
0x7897                           7406             0x72        0x70                          je       frame_ME+3ed              0x1                              0x3
0x7899  frame_ME+3e7:            895C2408         0x72        0x6a                          movl     %ebx, 0x8(%esp)           0x2                              
0x789d                           EB06             0x72        0x6e                          jmp      frame_ME+3f3              0x1                              0x3
0x789f  frame_ME+3ed:            33C0             0x72        0x70                          xorl     %eax, %eax                0x1                              
0x78a1                           89442408         0x71        0x6a                          movl     %eax, 0x8(%esp)           0x2                              
0x78a5  frame_ME+3f3:            8B442468         0x71        0x6e                          movl     0x68(%esp), %eax          0x1                              
0x78a9                           85C0             0x71        0x70                          testl    %eax, %eax                0x1                              
0x78ab                           7405             0x71                                      je       frame_ME+400              0x1                              0x3
0x78ad  frame_ME+3fb:            891C24           0x71        0x6a                          movl     %ebx, (%esp)              0x2                              
0x78b0                           EB05             0x71        0x6e                          jmp      frame_ME+405              0x1                              0x3
0x78b2  frame_ME+400:            33C0             0x71        0x70                          xorl     %eax, %eax                0x1                              
0x78b4                           890424           0x71        0x6a                          movl     %eax, (%esp)              0x2                              
0x78b7  frame_ME+405:            8B4C2458         0x71        0x6e                          movl     0x58(%esp), %ecx          0x1                              
0x78bb                           8B542454         0x71        0x70                          movl     0x54(%esp), %edx          0x1                              
0x78bf                           896C2410         0x71        0x6a                          movl     %ebp, 0x10(%esp)          0x2                              
0x78c3                           8BAC2480000000   0x72        0x6e                          movl     0x80(%esp), %ebp          0x1                              
0x78ca                           03DB             0x72        0x70                          addl     %ebx, %ebx                0x1                              
0x78cc                           8BF9             0x72        0x6a                          movl     %ecx, %edi                0x1                              
0x78ce                           D1FF             0x72        0x6e                          sarl     0x1, %edi                 0x1                              
0x78d0                           8BF2             0x72        0x70                          movl     %edx, %esi                0x1                              
0x78d2                           D1FE             0x72        0x6a                          sarl     0x1, %esi                 0x1                              
0x78d4                           0FAFF3           0x72        0x6e                          imull    %ebx, %esi                0x1                              
0x78d7                           8BC5             0x72        0x70                          movl     %ebp, %eax                0x1                              
0x78d9                           D1F8             0x72        0x6a                          sarl     0x1, %eax                 0x1                              
0x78db                           03FE             0x72        0x70                          addl     %esi, %edi                0x1                              
0x78dd                           03BC24E8000000   0x72        0x6a                          addl     0xe8(%esp), %edi          0x2                              
0x78e4                           83E101           0x71        0x6e                          andl     $0x1, %ecx                0x1                              
0x78e7                           83E201           0x71        0x70                          andl     $0x1, %edx                0x1                              
0x78ea                           037C2408         0x71                                      addl     0x8(%esp), %edi           0x2                              
0x78ee                           897C2414         0x71        0x6a                          movl     %edi, 0x14(%esp)          0x2                              
0x78f2                           83E501           0x71        0x6e                          andl     $0x1, %ebp                0x1                              
0x78f5                           8B7C247C         0x71        0x70                          movl     0x7c(%esp), %edi          0x1                              
0x78f9                           8BF7             0x71        0x6a                          movl     %edi, %esi                0x1                              
0x78fb                           D1FE             0x71        0x6e                          sarl     0x1, %esi                 0x1                              
0x78fd                           0FAFF3           0x71        0x70                          imull    %ebx, %esi                0x1                              
0x7900                           83E701           0x72        0x6a                          andl     $0x1, %edi                0x1                              
0x7903                           03C6             0x72        0x70                          addl     %esi, %eax                0x1                              
0x7905                           038424EC000000   0x72                                      addl     0xec(%esp), %eax          0x2                              
0x790c                           030424           0x72                                      addl     (%esp), %eax              0x2                              
0x790f                           6A08             0x72                                      pushl    $0x8                      0x3                              
0x7911                           57               0x72                                      pushl    %edi                      0x3                              
0x7912                           55               0x72                                      pushl    %ebp                      0x3                              
0x7913                           52               0x72                                      pushl    %edx                      0x3                              
0x7914                           51               0x72                                      pushl    %ecx                      0x3                              
0x7915                           53               0x72        0x6a                          pushl    %ebx                      0x3                              
0x7916                           8B6C2428         0x72        0x70                          movl     0x28(%esp), %ebp          0x1                              
0x791a                           55               0x72                                      pushl    %ebp                      0x3                              
0x791b                           50               0x72        0x6a                          pushl    %eax                      0x3                              
0x791c                           8B5C2434         0x72        0x70                          movl     0x34(%esp), %ebx          0x1                              
0x7920                           53               0x71                                      pushl    %ebx                      0x3                              
0x7921                           E80A420000       0x71        0x6a                          call     bdist1                    0x4                              0x3
0x7926  frame_ME+474:            8BD8             0x71        0x6e                          movl     %eax, %ebx                0x1                              
0x7928                           83C424           0x71        0x70                          addl     $0x24, %esp               0x1                              
0x792b                           8B3598930C08     0x71        0x6a                          movl     0x80c9398, %esi           0x1                              
0x7931                           8B54243C         0x71        0x6e                          movl     0x3c(%esp), %edx          0x1                              
0x7935                           85D2             0x71        0x70                          testl    %edx, %edx                0x1                              
0x7937                           7406             0x71                                      je       frame_ME+48d              0x1                              0x3
0x7939  frame_ME+487:            89742408         0x71        0x6a                          movl     %esi, 0x8(%esp)           0x2                              
0x793d                           EB06             0x71        0x6e                          jmp      frame_ME+493              0x1                              0x3
0x793f  frame_ME+48d:            33D2             0x71        0x70                          xorl     %edx, %edx                0x1                              
0x7941                           89542408         0x72        0x6a                          movl     %edx, 0x8(%esp)           0x2                              
0x7945  frame_ME+493:            8B542464         0x72        0x6e                          movl     0x64(%esp), %edx          0x1                              
0x7949                           85D2             0x72        0x70                          testl    %edx, %edx                0x1                              
0x794b                           7405             0x72                                      je       frame_ME+4a0              0x1                              0x3
0x794d  frame_ME+49b:            893424           0x72        0x6a                          movl     %esi, (%esp)              0x2                              
0x7950                           EB05             0x72        0x6e                          jmp      frame_ME+4a5              0x1                              0x3
0x7952  frame_ME+4a0:            33D2             0x72        0x70                          xorl     %edx, %edx                0x1                              
0x7954                           891424           0x72        0x6a                          movl     %edx, (%esp)              0x2                              
0x7957  frame_ME+4a5:            8B54244C         0x72        0x70                          movl     0x4c(%esp), %edx          0x1                              
0x795b                           896C2410         0x72        0x6a                          movl     %ebp, 0x10(%esp)          0x2                              
0x795f                           8BFA             0x72        0x70                          movl     %edx, %edi                0x1                              
0x7961                           895C2414         0x71        0x6a                          movl     %ebx, 0x14(%esp)          0x2                              
0x7965                           8D0C36           0x71        0x6e                          leal     (%esi, %esi, 1), %ecx     0x1                              
0x7968                           D1FF             0x71        0x70                          sarl     0x1, %edi                 0x1                              
0x796a                           0FAFF9           0x71        0x6a                          imull    %ecx, %edi                0x1                              
0x796d                           03F5             0x71        0x6e                          addl     %ebp, %esi                0x1                              
0x796f                           83E201           0x71        0x70                          andl     $0x1, %edx                0x1                              
0x7972                           8B5C2450         0x71        0x6a                          movl     0x50(%esp), %ebx          0x1                              
0x7976                           8B6C2474         0x71        0x6e                          movl     0x74(%esp), %ebp          0x1                              
0x797a                           8BC3             0x71        0x70                          movl     %ebx, %eax                0x1                              
0x797c                           D1F8             0x71        0x6a                          sarl     0x1, %eax                 0x1                              
0x797e                           03C7             0x71        0x6e                          addl     %edi, %eax                0x1                              
0x7980                           83E301           0x72        0x70                          andl     $0x1, %ebx                0x1                              
0x7983                           038424E8000000   0x72                                      addl     0xe8(%esp), %eax          0x2                              
0x798a                           03442408         0x72        0x6a                          addl     0x8(%esp), %eax           0x2                              
0x798e                           8B7C2474         0x72        0x70                          movl     0x74(%esp), %edi          0x1                              
0x7992                           89442418         0x72        0x6a                          movl     %eax, 0x18(%esp)          0x2                              
0x7996                           8B442478         0x72        0x6e                          movl     0x78(%esp), %eax          0x1                              
0x799a                           D1F8             0x72        0x70                          sarl     0x1, %eax                 0x1                              
0x799c                           D1FF             0x72        0x6a                          sarl     0x1, %edi                 0x1                              
0x799e                           0FAFF9           0x72        0x6e                          imull    %ecx, %edi                0x1                              
0x79a1                           83E501           0x71        0x70                          andl     $0x1, %ebp                0x1                              
0x79a4                           03C7             0x71                                      addl     %edi, %eax                0x1                              
0x79a6                           038424EC000000   0x71                                      addl     0xec(%esp), %eax          0x2                              
0x79ad                           030424           0x71        0x6a                          addl     (%esp), %eax              0x2                              
0x79b0                           8B7C2478         0x71        0x70                          movl     0x78(%esp), %edi          0x1                              
0x79b4                           6A08             0x71        0x6a                          pushl    $0x8                      0x3                              
0x79b6                           83E701           0x71        0x70                          andl     $0x1, %edi                0x1                              
0x79b9                           55               0x71                                      pushl    %ebp                      0x3                              
0x79ba                           57               0x71                                      pushl    %edi                      0x3                              
0x79bb                           52               0x71                                      pushl    %edx                      0x3                              
0x79bc                           53               0x71                                      pushl    %ebx                      0x3                              
0x79bd                           51               0x71                                      pushl    %ecx                      0x3                              
0x79be                           56               0x71                                      pushl    %esi                      0x3                              
0x79bf                           50               0x71        0x6a                          pushl    %eax                      0x3                              
0x79c0                           8B742438         0x72        0x70                          movl     0x38(%esp), %esi          0x1                              
0x79c4                           56               0x72        0x6a                          pushl    %esi                      0x3                              
0x79c5                           8B5C2438         0x72        0x6e                          movl     0x38(%esp), %ebx          0x1                              
0x79c9                           8B6C2434         0x72        0x70                          movl     0x34(%esp), %ebp          0x1                              
0x79cd                           E85E410000       0x72        0x6a                          call     bdist1                    0x4                              0x3
0x79d2  frame_ME+520:            83C424           0x72        0x6e                          addl     $0x24, %esp               0x1                              
0x79d5                           8B542404         0x72        0x70                          movl     0x4(%esp), %edx           0x1                              
0x79d9                           03D8             0x72        0x6a                          addl     %eax, %ebx                0x1                              
0x79db                           3BD3             0x72        0x6e                          cmpl     %ebx, %edx                0x1                              
0x79dd                           0F8DE0000000     0x72        0x70                          jge      frame_ME+611              0x1                              0x3
0x79e3  frame_ME+531:            8B742448         0x71        0x6a                          movl     0x48(%esp), %esi          0x1                              
0x79e7                           3BD6             0x71        0x6e                          cmpl     %esi, %edx                0x1                              
0x79e9                           0F8DC6000000     0x71        0x70                          jge      frame_ME+603              0x1                              0x3
0x79ef  frame_ME+53d:            8B4C2444         0x71        0x6a                          movl     0x44(%esp), %ecx          0x1                              
0x79f3                           3BD1             0x71        0x6e                          cmpl     %ecx, %edx                0x1                              
0x79f5                           0F8DB0000000     0x71        0x70                          jge      frame_ME+5f9              0x1                              0x3
0x79fb  frame_ME+549:            8B542470         0x71        0x6a                          movl     0x70(%esp), %edx          0x1                              
0x79ff                           8B7C2404         0x71        0x6e                          movl     0x4(%esp), %edi           0x1                              
0x7a03                           3BFA             0x72        0x70                          cmpl     %edx, %edi                0x1                              
0x7a05                           0F8D9A000000     0x72                                      jge      frame_ME+5f3              0x1                              0x3
0x7a0b  frame_ME+559:            8B44246C         0x72        0x6a                          movl     0x6c(%esp), %eax          0x1                              
0x7a0f                           3BF8             0x72        0x6e                          cmpl     %eax, %edi                0x1                              
0x7a11                           0F8DBC000000     0x72        0x70                          jge      frame_ME+621              0x1                              0x3
0x7a17  frame_ME+565:            896C2410         0x72        0x6a                          movl     %ebp, 0x10(%esp)          0x2                              
0x7a1b                           8BAC240C010000   0x72        0x70                          movl     0x10c(%esp), %ebp         0x1                              
0x7a22                           C745000C000000   0x71        0x6a                          movl     $0xc, (%ebp)              0x2                              
0x7a29                           8B1D98930C08     0x71        0x6e                          movl     0x80c9398, %ebx           0x1                              
0x7a2f                           8B4C2460         0x71        0x70                          movl     0x60(%esp), %ecx          0x1                              
0x7a33                           8B54245C         0x71        0x6a                          movl     0x5c(%esp), %edx          0x1                              
0x7a37                           8BF9             0x71        0x6e                          movl     %ecx, %edi                0x1                              
0x7a39                           D1FF             0x71        0x70                          sarl     0x1, %edi                 0x1                              
0x7a3b                           83E101           0x71                                      andl     $0x1, %ecx                0x1                              
0x7a3e                           C7450402000000   0x71        0x6a                          movl     $0x2, 0x4(%ebp)           0x2                              
0x7a45                           8BF2             0x72        0x6e                          movl     %edx, %esi                0x1                              
0x7a47                           D1FE             0x72        0x70                          sarl     0x1, %esi                 0x1                              
0x7a49                           0FAFF3           0x72        0x6a                          imull    %ebx, %esi                0x1                              
0x7a4c                           83E201           0x72        0x6e                          andl     $0x1, %edx                0x1                              
0x7a4f                           03FE             0x72        0x70                          addl     %esi, %edi                0x1                              
0x7a51                           03BC24E8000000   0x72        0x6a                          addl     0xe8(%esp), %edi          0x2                              
0x7a58                           8BB42484000000   0x72        0x70                          movl     0x84(%esp), %esi          0x1                              
0x7a5f                           897C2418         0x72        0x6a                          movl     %edi, 0x18(%esp)          0x2                              
0x7a63                           8BBC2488000000   0x71        0x6e                          movl     0x88(%esp), %edi          0x1                              
0x7a6a                           8BC7             0x71        0x70                          movl     %edi, %eax                0x1                              
0x7a6c                           D1F8             0x71        0x6a                          sarl     0x1, %eax                 0x1                              
0x7a6e                           83E701           0x71        0x6e                          andl     $0x1, %edi                0x1                              
0x7a71                           8BEE             0x71        0x70                          movl     %esi, %ebp                0x1                              
0x7a73                           D1FD             0x71        0x6a                          sarl     0x1, %ebp                 0x1                              
0x7a75                           0FAFEB           0x71        0x6e                          imull    %ebx, %ebp                0x1                              
0x7a78                           83E601           0x71        0x70                          andl     $0x1, %esi                0x1                              
0x7a7b                           03C5             0x71                                      addl     %ebp, %eax                0x1                              
0x7a7d                           038424EC000000   0x71                                      addl     0xec(%esp), %eax          0x2                              
0x7a84                           6A10             0x72                                      pushl    $0x10                     0x3                              
0x7a86                           56               0x72                                      pushl    %esi                      0x3                              
0x7a87                           57               0x72                                      pushl    %edi                      0x3                              
0x7a88                           52               0x72                                      pushl    %edx                      0x3                              
0x7a89                           51               0x72                                      pushl    %ecx                      0x3                              
0x7a8a                           53               0x72        0x6a                          pushl    %ebx                      0x3                              
0x7a8b                           8B542428         0x72        0x70                          movl     0x28(%esp), %edx          0x1                              
0x7a8f                           52               0x72                                      pushl    %edx                      0x3                              
0x7a90                           50               0x72        0x6a                          pushl    %eax                      0x3                              
0x7a91                           8B442438         0x72        0x70                          movl     0x38(%esp), %eax          0x1                              
0x7a95                           50               0x72                                      pushl    %eax                      0x3                              
0x7a96                           E86B420000       0x72        0x6a                          call     bdist2                    0x4                              0x3
0x7a9b  frame_ME+5e9:            8BD8             0x72        0x6e                          movl     %eax, %ebx                0x1                              
0x7a9d                           83C424           0x72        0x70                          addl     $0x24, %esp               0x1                              
0x7aa0                           E9F6030000       0x71        0x6a                          jmp      frame_ME+9e9              0x1                              0x3
0x7aa5  frame_ME+5f3:            8B44246C         0x71        0x6e                          movl     0x6c(%esp), %eax          0x1                              
0x7aa9                           EB28             0x71        0x70                          jmp      frame_ME+621              0x1                              0x3
0x7aab  frame_ME+5f9:            8B542470         0x71        0x6a                          movl     0x70(%esp), %edx          0x1                              
0x7aaf                           8B44246C         0x71        0x6e                          movl     0x6c(%esp), %eax          0x1                              
0x7ab3                           EB1E             0x71        0x70                          jmp      frame_ME+621              0x1                              0x3
0x7ab5  frame_ME+603:            8B4C2444         0x71        0x6a                          movl     0x44(%esp), %ecx          0x1                              
0x7ab9                           8B542470         0x71        0x6e                          movl     0x70(%esp), %edx          0x1                              
0x7abd                           8B44246C         0x71        0x70                          movl     0x6c(%esp), %eax          0x1                              
0x7ac1                           EB10             0x72        0x6a                          jmp      frame_ME+621              0x1                              0x3
0x7ac3  frame_ME+611:            8B742448         0x72        0x6e                          movl     0x48(%esp), %esi          0x1                              
0x7ac7                           8B4C2444         0x72        0x70                          movl     0x44(%esp), %ecx          0x1                              
0x7acb                           8B542470         0x72        0x6a                          movl     0x70(%esp), %edx          0x1                              
0x7acf                           8B44246C         0x72        0x6e                          movl     0x6c(%esp), %eax          0x1                              
0x7ad3  frame_ME+621:            3BDE             0x72        0x70                          cmpl     %esi, %ebx                0x1                              
0x7ad5                           0F8D75010000     0x72                                      jge      frame_ME+79e              0x1                              0x3
0x7adb  frame_ME+629:            3BD9             0x72        0x6a                          cmpl     %ecx, %ebx                0x1                              
0x7add                           0F8D6D010000     0x72        0x70                          jge      frame_ME+79e              0x1                              0x3
0x7ae3  frame_ME+631:            3BDA             0x71        0x6a                          cmpl     %edx, %ebx                0x1                              
0x7ae5                           0F8D65010000     0x71        0x70                          jge      frame_ME+79e              0x1                              0x3
0x7aeb  frame_ME+639:            3BD8             0x71        0x6a                          cmpl     %eax, %ebx                0x1                              
0x7aed                           0F8D5D010000     0x71        0x70                          jge      frame_ME+79e              0x1                              0x3
0x7af3  frame_ME+641:            8B9C240C010000   0x71                                      movl     0x10c(%esp), %ebx         0x1                              
0x7afa                           C7030C000000     0x71        0x6a                          movl     $0xc, (%ebx)              0x2                              
0x7b00                           8B442440         0x72        0x70                          movl     0x40(%esp), %eax          0x1                              
0x7b04                           C7430401000000   0x72        0x6a                          movl     $0x1, 0x4(%ebx)           0x2                              
0x7b0b                           8B1D98930C08     0x72        0x6e                          movl     0x80c9398, %ebx           0x1                              
0x7b11                           85C0             0x72        0x70                          testl    %eax, %eax                0x1                              
0x7b13                           7406             0x72                                      je       frame_ME+669              0x1                              0x3
0x7b15  frame_ME+663:            895C2404         0x72        0x6a                          movl     %ebx, 0x4(%esp)           0x2                              
0x7b19                           EB06             0x72        0x6e                          jmp      frame_ME+66f              0x1                              0x3
0x7b1b  frame_ME+669:            33C0             0x72        0x70                          xorl     %eax, %eax                0x1                              
0x7b1d                           89442404         0x72        0x6a                          movl     %eax, 0x4(%esp)           0x2                              
0x7b21  frame_ME+66f:            8B442468         0x71        0x6e                          movl     0x68(%esp), %eax          0x1                              
0x7b25                           85C0             0x71        0x70                          testl    %eax, %eax                0x1                              
0x7b27                           7405             0x71                                      je       frame_ME+67c              0x1                              0x3
0x7b29  frame_ME+677:            891C24           0x71        0x6a                          movl     %ebx, (%esp)              0x2                              
0x7b2c                           EB05             0x71        0x6e                          jmp      frame_ME+681              0x1                              0x3
0x7b2e  frame_ME+67c:            33C0             0x71        0x70                          xorl     %eax, %eax                0x1                              
0x7b30                           890424           0x71        0x6a                          movl     %eax, (%esp)              0x2                              
0x7b33  frame_ME+681:            8B4C2458         0x71        0x6e                          movl     0x58(%esp), %ecx          0x1                              
0x7b37                           8B542454         0x71        0x70                          movl     0x54(%esp), %edx          0x1                              
0x7b3b                           896C2410         0x71        0x6a                          movl     %ebp, 0x10(%esp)          0x2                              
0x7b3f                           8BAC2480000000   0x71        0x6e                          movl     0x80(%esp), %ebp          0x1                              
0x7b46                           03DB             0x72        0x70                          addl     %ebx, %ebx                0x1                              
0x7b48                           8BF9             0x72        0x6a                          movl     %ecx, %edi                0x1                              
0x7b4a                           D1FF             0x72        0x6e                          sarl     0x1, %edi                 0x1                              
0x7b4c                           8BF2             0x72        0x70                          movl     %edx, %esi                0x1                              
0x7b4e                           D1FE             0x72        0x6a                          sarl     0x1, %esi                 0x1                              
0x7b50                           0FAFF3           0x72        0x6e                          imull    %ebx, %esi                0x1                              
0x7b53                           8BC5             0x72        0x70                          movl     %ebp, %eax                0x1                              
0x7b55                           D1F8             0x72        0x6a                          sarl     0x1, %eax                 0x1                              
0x7b57                           03FE             0x72        0x70                          addl     %esi, %edi                0x1                              
0x7b59                           03BC24E8000000   0x72        0x6a                          addl     0xe8(%esp), %edi          0x2                              
0x7b60                           83E101           0x71        0x6e                          andl     $0x1, %ecx                0x1                              
0x7b63                           83E201           0x71        0x70                          andl     $0x1, %edx                0x1                              
0x7b66                           037C2404         0x71                                      addl     0x4(%esp), %edi           0x2                              
0x7b6a                           897C2418         0x71        0x6a                          movl     %edi, 0x18(%esp)          0x2                              
0x7b6e                           83E501           0x71        0x6e                          andl     $0x1, %ebp                0x1                              
0x7b71                           8B7C247C         0x71        0x70                          movl     0x7c(%esp), %edi          0x1                              
0x7b75                           8BF7             0x71        0x6a                          movl     %edi, %esi                0x1                              
0x7b77                           D1FE             0x71        0x6e                          sarl     0x1, %esi                 0x1                              
0x7b79                           0FAFF3           0x71        0x70                          imull    %ebx, %esi                0x1                              
0x7b7c                           83E701           0x71        0x6a                          andl     $0x1, %edi                0x1                              
0x7b7f                           03C6             0x71        0x70                          addl     %esi, %eax                0x1                              
0x7b81                           038424EC000000   0x72                                      addl     0xec(%esp), %eax          0x2                              
0x7b88                           030424           0x72                                      addl     (%esp), %eax              0x2                              
0x7b8b                           6A08             0x72                                      pushl    $0x8                      0x3                              
0x7b8d                           57               0x72                                      pushl    %edi                      0x3                              
0x7b8e                           55               0x72                                      pushl    %ebp                      0x3                              
0x7b8f                           52               0x72                                      pushl    %edx                      0x3                              
0x7b90                           51               0x72                                      pushl    %ecx                      0x3                              
0x7b91                           53               0x72        0x6a                          pushl    %ebx                      0x3                              
0x7b92                           8B6C2428         0x72        0x70                          movl     0x28(%esp), %ebp          0x1                              
0x7b96                           55               0x72                                      pushl    %ebp                      0x3                              
0x7b97                           50               0x72        0x6a                          pushl    %eax                      0x3                              
0x7b98                           8B5C2438         0x72        0x70                          movl     0x38(%esp), %ebx          0x1                              
0x7b9c                           53               0x72                                      pushl    %ebx                      0x3                              
0x7b9d                           E864410000       0x72        0x6a                          call     bdist2                    0x4                              0x3
0x7ba2  frame_ME+6f0:            8BD8             0x71        0x6e                          movl     %eax, %ebx                0x1                              
0x7ba4                           83C424           0x71        0x70                          addl     $0x24, %esp               0x1                              
0x7ba7                           8B3598930C08     0x71        0x6a                          movl     0x80c9398, %esi           0x1                              
0x7bad                           8B54243C         0x71        0x6e                          movl     0x3c(%esp), %edx          0x1                              
0x7bb1                           85D2             0x71        0x70                          testl    %edx, %edx                0x1                              
0x7bb3                           7406             0x71                                      je       frame_ME+709              0x1                              0x3
0x7bb5  frame_ME+703:            89742404         0x71        0x6a                          movl     %esi, 0x4(%esp)           0x2                              
0x7bb9                           EB06             0x71        0x6e                          jmp      frame_ME+70f              0x1                              0x3
0x7bbb  frame_ME+709:            33D2             0x71        0x70                          xorl     %edx, %edx                0x1                              
0x7bbd                           89542404         0x71        0x6a                          movl     %edx, 0x4(%esp)           0x2                              
0x7bc1  frame_ME+70f:            8B542464         0x72        0x6e                          movl     0x64(%esp), %edx          0x1                              
0x7bc5                           85D2             0x72        0x70                          testl    %edx, %edx                0x1                              
0x7bc7                           7405             0x72                                      je       frame_ME+71c              0x1                              0x3
0x7bc9  frame_ME+717:            893424           0x72        0x6a                          movl     %esi, (%esp)              0x2                              
0x7bcc                           EB05             0x72        0x6e                          jmp      frame_ME+721              0x1                              0x3
0x7bce  frame_ME+71c:            33D2             0x72        0x70                          xorl     %edx, %edx                0x1                              
0x7bd0                           891424           0x72        0x6a                          movl     %edx, (%esp)              0x2                              
0x7bd3  frame_ME+721:            8B54244C         0x72        0x70                          movl     0x4c(%esp), %edx          0x1                              
0x7bd7                           895C2408         0x72        0x6a                          movl     %ebx, 0x8(%esp)           0x2                              
0x7bdb                           8B5C2450         0x72        0x6e                          movl     0x50(%esp), %ebx          0x1                              
0x7bdf                           8D0C36           0x72        0x70                          leal     (%esi, %esi, 1), %ecx     0x1                              
0x7be2                           8BC3             0x71        0x6a                          movl     %ebx, %eax                0x1                              
0x7be4                           D1F8             0x71        0x6e                          sarl     0x1, %eax                 0x1                              
0x7be6                           8BFA             0x71        0x70                          movl     %edx, %edi                0x1                              
0x7be8                           D1FF             0x71        0x6a                          sarl     0x1, %edi                 0x1                              
0x7bea                           0FAFF9           0x71        0x6e                          imull    %ecx, %edi                0x1                              
0x7bed                           03F5             0x71        0x70                          addl     %ebp, %esi                0x1                              
0x7bef                           83E301           0x71        0x6a                          andl     $0x1, %ebx                0x1                              
0x7bf2                           8B6C2474         0x71        0x6e                          movl     0x74(%esp), %ebp          0x1                              
0x7bf6                           03C7             0x71        0x70                          addl     %edi, %eax                0x1                              
0x7bf8                           038424E8000000   0x71        0x6a                          addl     0xe8(%esp), %eax          0x2                              
0x7bff                           83E201           0x71        0x70                          andl     $0x1, %edx                0x1                              
0x7c02                           03442404         0x72        0x6a                          addl     0x4(%esp), %eax           0x2                              
0x7c06                           8B7C2474         0x72        0x70                          movl     0x74(%esp), %edi          0x1                              
0x7c0a                           89442418         0x72        0x6a                          movl     %eax, 0x18(%esp)          0x2                              
0x7c0e                           8B442478         0x72        0x6e                          movl     0x78(%esp), %eax          0x1                              
0x7c12                           D1F8             0x72        0x70                          sarl     0x1, %eax                 0x1                              
0x7c14                           D1FF             0x72        0x6a                          sarl     0x1, %edi                 0x1                              
0x7c16                           0FAFF9           0x72        0x6e                          imull    %ecx, %edi                0x1                              
0x7c19                           83E501           0x72        0x70                          andl     $0x1, %ebp                0x1                              
0x7c1c                           03C7             0x72                                      addl     %edi, %eax                0x1                              
0x7c1e                           038424EC000000   0x72                                      addl     0xec(%esp), %eax          0x2                              
0x7c25                           030424           0x71        0x6a                          addl     (%esp), %eax              0x2                              
0x7c28                           8B7C2478         0x71        0x70                          movl     0x78(%esp), %edi          0x1                              
0x7c2c                           6A08             0x71        0x6a                          pushl    $0x8                      0x3                              
0x7c2e                           83E701           0x71        0x70                          andl     $0x1, %edi                0x1                              
0x7c31                           55               0x71                                      pushl    %ebp                      0x3                              
0x7c32                           57               0x71                                      pushl    %edi                      0x3                              
0x7c33                           52               0x71                                      pushl    %edx                      0x3                              
0x7c34                           53               0x71                                      pushl    %ebx                      0x3                              
0x7c35                           51               0x71                                      pushl    %ecx                      0x3                              
0x7c36                           56               0x71                                      pushl    %esi                      0x3                              
0x7c37                           50               0x71        0x6a                          pushl    %eax                      0x3                              
0x7c38                           8B742438         0x71        0x70                          movl     0x38(%esp), %esi          0x1                              
0x7c3c                           56               0x71        0x6a                          pushl    %esi                      0x3                              
0x7c3d                           8B5C242C         0x71        0x70                          movl     0x2c(%esp), %ebx          0x1                              
0x7c41                           E8C0400000       0x72        0x6a                          call     bdist2                    0x4                              0x3
0x7c46  frame_ME+794:            83C424           0x72        0x6e                          addl     $0x24, %esp               0x1                              
0x7c49                           03D8             0x72        0x70                          addl     %eax, %ebx                0x1                              
0x7c4b                           E94B020000       0x72        0x6a                          jmp      frame_ME+9e9              0x1                              0x3
0x7c50  frame_ME+79e:            3BF1             0x72        0x6e                          cmpl     %ecx, %esi                0x1                              
0x7c52                           7D5A             0x72        0x70                          jge      frame_ME+7fc              0x1                              0x3
0x7c54  frame_ME+7a2:            3BF2             0x72        0x6a                          cmpl     %edx, %esi                0x1                              
0x7c56                           7D56             0x72        0x70                          jge      frame_ME+7fc              0x1                              0x3
0x7c58  frame_ME+7a6:            3BF0             0x72        0x6a                          cmpl     %eax, %esi                0x1                              
0x7c5a                           7D52             0x72        0x70                          jge      frame_ME+7fc              0x1                              0x3
0x7c5c  frame_ME+7aa:            8B84240C010000   0x72                                      movl     0x10c(%esp), %eax         0x1                              
0x7c63                           C70008000000     0x71        0x6a                          movl     $0x8, (%eax)              0x2                              
0x7c69                           8B3598930C08     0x71        0x6e                          movl     0x80c9398, %esi           0x1                              
0x7c6f                           8B5C2460         0x71        0x70                          movl     0x60(%esp), %ebx          0x1                              
0x7c73                           8B4C245C         0x71                                      movl     0x5c(%esp), %ecx          0x1                              
0x7c77                           C7400402000000   0x71        0x6a                          movl     $0x2, 0x4(%eax)           0x2                              
0x7c7e                           8BFB             0x71        0x6e                          movl     %ebx, %edi                0x1                              
0x7c80                           D1FF             0x72        0x70                          sarl     0x1, %edi                 0x1                              
0x7c82                           83E301           0x72        0x6a                          andl     $0x1, %ebx                0x1                              
0x7c85                           8BD1             0x72        0x6e                          movl     %ecx, %edx                0x1                              
0x7c87                           D1FA             0x72        0x70                          sarl     0x1, %edx                 0x1                              
0x7c89                           0FAFD6           0x72        0x6a                          imull    %esi, %edx                0x1                              
0x7c8c                           83E101           0x72        0x6e                          andl     $0x1, %ecx                0x1                              
0x7c8f                           03FA             0x72        0x70                          addl     %edx, %edi                0x1                              
0x7c91                           03BC24E8000000   0x72                                      addl     0xe8(%esp), %edi          0x2                              
0x7c98                           6A10             0x72                                      pushl    $0x10                     0x3                              
0x7c9a                           51               0x72                                      pushl    %ecx                      0x3                              
0x7c9b                           53               0x72                                      pushl    %ebx                      0x3                              
0x7c9c                           56               0x72                                      pushl    %esi                      0x3                              
0x7c9d                           55               0x72                                      pushl    %ebp                      0x3                              
0x7c9e                           57               0x72                                      pushl    %edi                      0x3                              
0x7c9f                           E872370000       0x72        0x6a                          call     dist2                     0x4                              0x3
0x7ca4  frame_ME+7f2:            8BD8             0x71        0x6e                          movl     %eax, %ebx                0x1                              
0x7ca6                           83C418           0x71        0x70                          addl     $0x18, %esp               0x1                              
0x7ca9                           E9ED010000       0x71        0x6a                          jmp      frame_ME+9e9              0x1                              0x3
0x7cae  frame_ME+7fc:            3BCA             0x71        0x6e                          cmpl     %edx, %ecx                0x1                              
0x7cb0                           0F8DC9000000     0x71        0x70                          jge      frame_ME+8cd              0x1                              0x3
0x7cb6  frame_ME+804:            3BC8             0x71        0x6a                          cmpl     %eax, %ecx                0x1                              
0x7cb8                           0F8DC1000000     0x71        0x70                          jge      frame_ME+8cd              0x1                              0x3
0x7cbe  frame_ME+80c:            8B84240C010000   0x71                                      movl     0x10c(%esp), %eax         0x1                              
0x7cc5                           C70008000000     0x72        0x6a                          movl     $0x8, (%eax)              0x2                              
0x7ccb                           8B542440         0x72        0x70                          movl     0x40(%esp), %edx          0x1                              
0x7ccf                           C7400401000000   0x72        0x6a                          movl     $0x1, 0x4(%eax)           0x2                              
0x7cd6                           A198930C08       0x72        0x6e                          movl     0x80c9398, %eax           0x1                              
0x7cdb                           85D2             0x72        0x70                          testl    %edx, %edx                0x1                              
0x7cdd                           7404             0x72                                      je       frame_ME+831              0x1                              0x3
0x7cdf  frame_ME+82d:            8BC8             0x72        0x6a                          movl     %eax, %ecx                0x1                              
0x7ce1                           EB02             0x71        0x6e                          jmp      frame_ME+833              0x1                              0x3
0x7ce3  frame_ME+831:            33C9             0x71        0x70                          xorl     %ecx, %ecx                0x1                              
0x7ce5  frame_ME+833:            8B742458         0x71        0x6a                          movl     0x58(%esp), %esi          0x1                              
0x7ce9                           8B5C2454         0x71        0x6e                          movl     0x54(%esp), %ebx          0x1                              
0x7ced                           03C0             0x71        0x70                          addl     %eax, %eax                0x1                              
0x7cef                           8BFE             0x71        0x6a                          movl     %esi, %edi                0x1                              
0x7cf1                           D1FF             0x71        0x6e                          sarl     0x1, %edi                 0x1                              
0x7cf3                           8BD3             0x71        0x70                          movl     %ebx, %edx                0x1                              
0x7cf5                           D1FA             0x71        0x6a                          sarl     0x1, %edx                 0x1                              
0x7cf7                           0FAFD0           0x71        0x6e                          imull    %eax, %edx                0x1                              
0x7cfa                           83E601           0x71        0x70                          andl     $0x1, %esi                0x1                              
0x7cfd                           83E301           0x71        0x6a                          andl     $0x1, %ebx                0x1                              
0x7d00                           03FA             0x72        0x70                          addl     %edx, %edi                0x1                              
0x7d02                           03BC24E8000000   0x72        0x6a                          addl     0xe8(%esp), %edi          0x2                              
0x7d09                           03F9             0x72        0x70                          addl     %ecx, %edi                0x1                              
0x7d0b                           6A08             0x72                                      pushl    $0x8                      0x3                              
0x7d0d                           53               0x72                                      pushl    %ebx                      0x3                              
0x7d0e                           56               0x72                                      pushl    %esi                      0x3                              
0x7d0f                           50               0x72                                      pushl    %eax                      0x3                              
0x7d10                           55               0x72                                      pushl    %ebp                      0x3                              
0x7d11                           57               0x72                                      pushl    %edi                      0x3                              
0x7d12                           E8FF360000       0x72        0x6a                          call     dist2                     0x4                              0x3
0x7d17  frame_ME+865:            8BD8             0x72        0x6e                          movl     %eax, %ebx                0x1                              
0x7d19                           83C418           0x72        0x70                          addl     $0x18, %esp               0x1                              
0x7d1c                           8B1598930C08     0x72        0x6a                          movl     0x80c9398, %edx           0x1                              
0x7d22                           8B4C243C         0x71        0x6e                          movl     0x3c(%esp), %ecx          0x1                              
0x7d26                           85C9             0x71        0x70                          testl    %ecx, %ecx                0x1                              
0x7d28                           7406             0x71                                      je       frame_ME+87e              0x1                              0x3
0x7d2a  frame_ME+878:            89542404         0x71        0x6a                          movl     %edx, 0x4(%esp)           0x2                              
0x7d2e                           EB06             0x71        0x6e                          jmp      frame_ME+884              0x1                              0x3
0x7d30  frame_ME+87e:            33C9             0x71        0x70                          xorl     %ecx, %ecx                0x1                              
0x7d32                           894C2404         0x71        0x6a                          movl     %ecx, 0x4(%esp)           0x2                              
0x7d36  frame_ME+884:            8B4C244C         0x71        0x70                          movl     0x4c(%esp), %ecx          0x1                              
0x7d3a                           895C2408         0x71        0x6a                          movl     %ebx, 0x8(%esp)           0x2                              
0x7d3e                           8B5C2450         0x71        0x6e                          movl     0x50(%esp), %ebx          0x1                              
0x7d42                           8D3412           0x72        0x70                          leal     (%edx, %edx, 1), %esi     0x1                              
0x7d45                           8BFB             0x72        0x6a                          movl     %ebx, %edi                0x1                              
0x7d47                           D1FF             0x72        0x6e                          sarl     0x1, %edi                 0x1                              
0x7d49                           8BC1             0x72        0x70                          movl     %ecx, %eax                0x1                              
0x7d4b                           D1F8             0x72        0x6a                          sarl     0x1, %eax                 0x1                              
0x7d4d                           0FAFC6           0x72        0x6e                          imull    %esi, %eax                0x1                              
0x7d50                           03D5             0x72        0x70                          addl     %ebp, %edx                0x1                              
0x7d52                           83E301           0x72        0x6a                          andl     $0x1, %ebx                0x1                              
0x7d55                           03F8             0x72        0x70                          addl     %eax, %edi                0x1                              
0x7d57                           03BC24E8000000   0x72        0x6a                          addl     0xe8(%esp), %edi          0x2                              
0x7d5e                           83E101           0x72        0x70                          andl     $0x1, %ecx                0x1                              
0x7d61                           037C2404         0x71                                      addl     0x4(%esp), %edi           0x2                              
0x7d65                           6A08             0x71                                      pushl    $0x8                      0x3                              
0x7d67                           51               0x71                                      pushl    %ecx                      0x3                              
0x7d68                           53               0x71                                      pushl    %ebx                      0x3                              
0x7d69                           56               0x71                                      pushl    %esi                      0x3                              
0x7d6a                           52               0x71                                      pushl    %edx                      0x3                              
0x7d6b                           57               0x71        0x6a                          pushl    %edi                      0x3                              
0x7d6c                           8B5C2420         0x71        0x70                          movl     0x20(%esp), %ebx          0x1                              
0x7d70                           E8A1360000       0x71        0x6a                          call     dist2                     0x4                              0x3
0x7d75  frame_ME+8c3:            83C418           0x71        0x6e                          addl     $0x18, %esp               0x1                              
0x7d78                           03D8             0x71        0x70                          addl     %eax, %ebx                0x1                              
0x7d7a                           E91C010000       0x71        0x6a                          jmp      frame_ME+9e9              0x1                              0x3
0x7d7f  frame_ME+8cd:            3BD0             0x71        0x6e                          cmpl     %eax, %edx                0x1                              
0x7d81                           0F8CC1000000     0x72        0x70                          jnge     frame_ME+996              0x1                              0x3
0x7d87  frame_ME+8d5:            8B84240C010000   0x72                                      movl     0x10c(%esp), %eax         0x1                              
0x7d8e                           C70004000000     0x72        0x6a                          movl     $0x4, (%eax)              0x2                              
0x7d94                           8B542468         0x72        0x70                          movl     0x68(%esp), %edx          0x1                              
0x7d98                           C7400401000000   0x72        0x6a                          movl     $0x1, 0x4(%eax)           0x2                              
0x7d9f                           A198930C08       0x72        0x6e                          movl     0x80c9398, %eax           0x1                              
0x7da4                           85D2             0x71        0x70                          testl    %edx, %edx                0x1                              
0x7da6                           7404             0x71                                      je       frame_ME+8fa              0x1                              0x3
0x7da8  frame_ME+8f6:            8BC8             0x71        0x6a                          movl     %eax, %ecx                0x1                              
0x7daa                           EB02             0x71        0x6e                          jmp      frame_ME+8fc              0x1                              0x3
0x7dac  frame_ME+8fa:            33C9             0x71        0x70                          xorl     %ecx, %ecx                0x1                              
0x7dae  frame_ME+8fc:            8BB42480000000   0x71        0x6a                          movl     0x80(%esp), %esi          0x1                              
0x7db5                           8B5C247C         0x71        0x6e                          movl     0x7c(%esp), %ebx          0x1                              
0x7db9                           03C0             0x71        0x70                          addl     %eax, %eax                0x1                              
0x7dbb                           8BFE             0x71        0x6a                          movl     %esi, %edi                0x1                              
0x7dbd                           D1FF             0x71        0x6e                          sarl     0x1, %edi                 0x1                              
0x7dbf                           8BD3             0x71        0x70                          movl     %ebx, %edx                0x1                              
0x7dc1                           D1FA             0x72        0x6a                          sarl     0x1, %edx                 0x1                              
0x7dc3                           0FAFD0           0x72        0x6e                          imull    %eax, %edx                0x1                              
0x7dc6                           83E601           0x72        0x70                          andl     $0x1, %esi                0x1                              
0x7dc9                           83E301           0x72        0x6a                          andl     $0x1, %ebx                0x1                              
0x7dcc                           03FA             0x72        0x70                          addl     %edx, %edi                0x1                              
0x7dce                           03BC24EC000000   0x72        0x6a                          addl     0xec(%esp), %edi          0x2                              
0x7dd5                           03F9             0x72        0x70                          addl     %ecx, %edi                0x1                              
0x7dd7                           6A08             0x72                                      pushl    $0x8                      0x3                              
0x7dd9                           53               0x72                                      pushl    %ebx                      0x3                              
0x7dda                           56               0x72                                      pushl    %esi                      0x3                              
0x7ddb                           50               0x72                                      pushl    %eax                      0x3                              
0x7ddc                           55               0x72                                      pushl    %ebp                      0x3                              
0x7ddd                           57               0x72                                      pushl    %edi                      0x3                              
0x7dde                           E833360000       0x72        0x6a                          call     dist2                     0x4                              0x3
0x7de3  frame_ME+931:            8BD8             0x71        0x6e                          movl     %eax, %ebx                0x1                              
0x7de5                           83C418           0x71        0x70                          addl     $0x18, %esp               0x1                              
0x7de8                           8B1598930C08     0x71        0x6a                          movl     0x80c9398, %edx           0x1                              
0x7dee                           8B4C2464         0x71        0x6e                          movl     0x64(%esp), %ecx          0x1                              
0x7df2                           85C9             0x71        0x70                          testl    %ecx, %ecx                0x1                              
0x7df4                           7406             0x71                                      je       frame_ME+94a              0x1                              0x3
0x7df6  frame_ME+944:            89542404         0x71        0x6a                          movl     %edx, 0x4(%esp)           0x2                              
0x7dfa                           EB06             0x71        0x6e                          jmp      frame_ME+950              0x1                              0x3
0x7dfc  frame_ME+94a:            33C9             0x71        0x70                          xorl     %ecx, %ecx                0x1                              
0x7dfe                           894C2404         0x71        0x6a                          movl     %ecx, 0x4(%esp)           0x2                              
0x7e02  frame_ME+950:            8B4C2474         0x72        0x70                          movl     0x74(%esp), %ecx          0x1                              
0x7e06                           895C2408         0x72        0x6a                          movl     %ebx, 0x8(%esp)           0x2                              
0x7e0a                           8B5C2478         0x72        0x6e                          movl     0x78(%esp), %ebx          0x1                              
0x7e0e                           8D3412           0x72        0x70                          leal     (%edx, %edx, 1), %esi     0x1                              
0x7e11                           8BFB             0x72        0x6a                          movl     %ebx, %edi                0x1                              
0x7e13                           D1FF             0x72        0x6e                          sarl     0x1, %edi                 0x1                              
0x7e15                           8BC1             0x72        0x70                          movl     %ecx, %eax                0x1                              
0x7e17                           D1F8             0x72        0x6a                          sarl     0x1, %eax                 0x1                              
0x7e19                           0FAFC6           0x72        0x6e                          imull    %esi, %eax                0x1                              
0x7e1c                           03D5             0x72        0x70                          addl     %ebp, %edx                0x1                              
0x7e1e                           83E301           0x72        0x6a                          andl     $0x1, %ebx                0x1                              
0x7e21                           03F8             0x71        0x70                          addl     %eax, %edi                0x1                              
0x7e23                           03BC24EC000000   0x71        0x6a                          addl     0xec(%esp), %edi          0x2                              
0x7e2a                           83E101           0x71        0x70                          andl     $0x1, %ecx                0x1                              
0x7e2d                           037C2404         0x71                                      addl     0x4(%esp), %edi           0x2                              
0x7e31                           6A08             0x71                                      pushl    $0x8                      0x3                              
0x7e33                           51               0x71                                      pushl    %ecx                      0x3                              
0x7e34                           53               0x71                                      pushl    %ebx                      0x3                              
0x7e35                           56               0x71                                      pushl    %esi                      0x3                              
0x7e36                           52               0x71                                      pushl    %edx                      0x3                              
0x7e37                           57               0x71        0x6a                          pushl    %edi                      0x3                              
0x7e38                           8B5C2420         0x71        0x70                          movl     0x20(%esp), %ebx          0x1                              
0x7e3c                           E8D5350000       0x71        0x6a                          call     dist2                     0x4                              0x3
0x7e41  frame_ME+98f:            83C418           0x72        0x6e                          addl     $0x18, %esp               0x1                              
0x7e44                           03D8             0x72        0x70                          addl     %eax, %ebx                0x1                              
0x7e46                           EB53             0x72        0x6a                          jmp      frame_ME+9e9              0x1                              0x3
0x7e48  frame_ME+996:            8B84240C010000   0x72        0x70                          movl     0x10c(%esp), %eax         0x1                              
0x7e4f                           C70004000000     0x72        0x6a                          movl     $0x4, (%eax)              0x2                              
0x7e55                           8B3598930C08     0x72        0x6e                          movl     0x80c9398, %esi           0x1                              
0x7e5b                           8B9C2488000000   0x72        0x70                          movl     0x88(%esp), %ebx          0x1                              
0x7e62                           8B8C2484000000   0x71                                      movl     0x84(%esp), %ecx          0x1                              
0x7e69                           C7400402000000   0x71        0x6a                          movl     $0x2, 0x4(%eax)           0x2                              
0x7e70                           8BFB             0x71        0x6e                          movl     %ebx, %edi                0x1                              
0x7e72                           D1FF             0x71        0x70                          sarl     0x1, %edi                 0x1                              
0x7e74                           83E301           0x71        0x6a                          andl     $0x1, %ebx                0x1                              
0x7e77                           8BD1             0x71        0x6e                          movl     %ecx, %edx                0x1                              
0x7e79                           D1FA             0x71        0x70                          sarl     0x1, %edx                 0x1                              
0x7e7b                           0FAFD6           0x71        0x6a                          imull    %esi, %edx                0x1                              
0x7e7e                           83E101           0x71        0x6e                          andl     $0x1, %ecx                0x1                              
0x7e81                           03FA             0x72        0x70                          addl     %edx, %edi                0x1                              
0x7e83                           03BC24EC000000   0x72                                      addl     0xec(%esp), %edi          0x2                              
0x7e8a                           6A10             0x72                                      pushl    $0x10                     0x3                              
0x7e8c                           51               0x72                                      pushl    %ecx                      0x3                              
0x7e8d                           53               0x72                                      pushl    %ebx                      0x3                              
0x7e8e                           56               0x72                                      pushl    %esi                      0x3                              
0x7e8f                           55               0x72                                      pushl    %ebp                      0x3                              
0x7e90                           57               0x72                                      pushl    %edi                      0x3                              
0x7e91                           E880350000       0x72        0x6a                          call     dist2                     0x4                              0x3
0x7e96  frame_ME+9e4:            8BD8             0x72        0x6e                          movl     %eax, %ebx                0x1                              
0x7e98                           83C418           0x72        0x70                          addl     $0x18, %esp               0x1                              
0x7e9b  frame_ME+9e9:            8B54240C         0x72        0x6a                          movl     0xc(%esp), %edx           0x1                              
0x7e9f                           3BDA             0x72        0x6e                          cmpl     %edx, %ebx                0x1                              
0x7ea1                           7E1A             0x71        0x70                          jle      frame_ME+a0b              0x1                              0x3
0x7ea3  frame_ME+9f1:            81FB00090000     0x71        0x6a                          cmpl     $0x900, %ebx              0x1                              
0x7ea9                           7C12             0x71        0x70                          jnge     frame_ME+a0b              0x1                              0x3
0x7eab  frame_ME+9f9:            8B84240C010000   0x71                                      movl     0x10c(%esp), %eax         0x1                              
0x7eb2                           C70001000000     0x71        0x6a                          movl     $0x1, (%eax)              0x2                              
0x7eb8                           E9A2000000       0x71        0x6e                          jmp      frame_ME+aad              0x1                              0x3
0x7ebd  frame_ME+a0b:            8B8C24F4000000   0x71        0x70                          movl     0xf4(%esp), %ecx          0x1                              
0x7ec4                           8B84240C010000   0x72        0x6a                          movl     0x10c(%esp), %eax         0x1                              
0x7ecb                           8B5004           0x72        0x70                          movl     0x4(%eax), %edx           0x1                              
0x7ece                           895C240C         0x72        0x6a                          movl     %ebx, 0xc(%esp)           0x2                              
0x7ed2                           8D0C09           0x72        0x6e                          leal     (%ecx, %ecx, 1), %ecx     0x1                              
0x7ed5                           83FA02           0x72        0x70                          cmpl     $0x2, %edx                0x1                              
0x7ed8                           0F849A000000     0x72                                      je       frame_ME+ac6              0x1                              0x3
0x7ede  frame_ME+a2c:            8B5C2458         0x72        0x6a                          movl     0x58(%esp), %ebx          0x1                              
0x7ee2                           8B94240C010000   0x71        0x6e                          movl     0x10c(%esp), %edx         0x1                              
0x7ee9                           8BAC24F8000000   0x71        0x70                          movl     0xf8(%esp), %ebp          0x1                              
0x7ef0                           2BD9             0x71                                      subl     %ecx, %ebx                0x1                              
0x7ef2                           895A18           0x71        0x6a                          movl     %ebx, 0x18(%edx)          0x2                              
0x7ef5                           8D442D00         0x71        0x6e                          leal     (%ebp, %ebp, 1), %eax     0x1                              
0x7ef9                           8B742454         0x71        0x70                          movl     0x54(%esp), %esi          0x1                              
0x7efd                           03F6             0x71        0x6a                          addl     %esi, %esi                0x1                              
0x7eff                           2BF0             0x71        0x70                          subl     %eax, %esi                0x1                              
0x7f01                           89721C           0x72        0x6a                          movl     %esi, 0x1c(%edx)          0x2                              
0x7f04                           8B7C2450         0x72        0x6e                          movl     0x50(%esp), %edi          0x1                              
0x7f08                           2BF9             0x72        0x70                          subl     %ecx, %edi                0x1                              
0x7f0a                           897A28           0x72        0x6a                          movl     %edi, 0x28(%edx)          0x2                              
0x7f0d                           8B5C244C         0x72        0x6e                          movl     0x4c(%esp), %ebx          0x1                              
0x7f11                           03DB             0x72        0x70                          addl     %ebx, %ebx                0x1                              
0x7f13                           2BD8             0x72                                      subl     %eax, %ebx                0x1                              
0x7f15                           895A2C           0x72        0x6a                          movl     %ebx, 0x2c(%edx)          0x2                              
0x7f18                           8B5C2440         0x72        0x70                          movl     0x40(%esp), %ebx          0x1                              
0x7f1c                           895A38           0x72        0x6a                          movl     %ebx, 0x38(%edx)          0x2                              
0x7f1f                           8B5C243C         0x72        0x70                          movl     0x3c(%esp), %ebx          0x1                              
0x7f23                           895A40           0x71        0x6a                          movl     %ebx, 0x40(%edx)          0x2                              
0x7f26                           8B9C2480000000   0x71        0x6e                          movl     0x80(%esp), %ebx          0x1                              
0x7f2d                           2BD9             0x71        0x70                          subl     %ecx, %ebx                0x1                              
0x7f2f                           895A20           0x71        0x6a                          movl     %ebx, 0x20(%edx)          0x2                              
0x7f32                           8B5C247C         0x71        0x6e                          movl     0x7c(%esp), %ebx          0x1                              
0x7f36                           03DB             0x71        0x70                          addl     %ebx, %ebx                0x1                              
0x7f38                           2BD8             0x71                                      subl     %eax, %ebx                0x1                              
0x7f3a                           895A24           0x71        0x6a                          movl     %ebx, 0x24(%edx)          0x2                              
0x7f3d                           8B5C2478         0x71        0x6e                          movl     0x78(%esp), %ebx          0x1                              
0x7f41                           2BD9             0x72        0x70                          subl     %ecx, %ebx                0x1                              
0x7f43                           895A30           0x72        0x6a                          movl     %ebx, 0x30(%edx)          0x2                              
0x7f46                           8B4C2474         0x72        0x6e                          movl     0x74(%esp), %ecx          0x1                              
0x7f4a                           03C9             0x72        0x70                          addl     %ecx, %ecx                0x1                              
0x7f4c                           2BC8             0x72                                      subl     %eax, %ecx                0x1                              
0x7f4e                           894A34           0x72        0x6a                          movl     %ecx, 0x34(%edx)          0x2                              
0x7f51                           8B442468         0x72        0x70                          movl     0x68(%esp), %eax          0x1                              
0x7f55                           89423C           0x72        0x6a                          movl     %eax, 0x3c(%edx)          0x2                              
0x7f58                           8B442464         0x72        0x70                          movl     0x64(%esp), %eax          0x1                              
0x7f5c                           894244           0x72        0x6a                          movl     %eax, 0x44(%edx)          0x2                              
0x7f5f  frame_ME+aad:            8B94240C010000   0x72        0x6e                          movl     0x10c(%esp), %edx         0x1                              
0x7f66                           8B44240C         0x71        0x70                          movl     0xc(%esp), %eax           0x1                              
0x7f6a                           894258           0x71        0x6a                          movl     %eax, 0x58(%edx)          0x2                              
0x7f6d                           81C4CC000000     0x71        0x70                          addl     $0xcc, %esp               0x1                              
0x7f73                           5B               0x71                                      popl     %ebx                      0x2                              
0x7f74                           5D               0x71                                      popl     %ebp                      0x2                              
0x7f75                           5E               0x71                                      popl     %esi                      0x2                              
0x7f76                           5F               0x71                                      popl     %edi                      0x2                              
0x7f77                           C3               0x71        0x6a                          ret                                0x4                              
0x7f78  frame_ME+ac6:            8B542460         0x71        0x6e                          movl     0x60(%esp), %edx          0x1                              
0x7f7c                           8B84240C010000   0x71        0x70                          movl     0x10c(%esp), %eax         0x1                              
0x7f83                           8B9C24F8000000   0x72        0x6a                          movl     0xf8(%esp), %ebx          0x1                              
0x7f8a                           2BD1             0x72        0x70                          subl     %ecx, %edx                0x1                              
0x7f8c                           895018           0x72        0x6a                          movl     %edx, 0x18(%eax)          0x2                              
0x7f8f                           8D3C1B           0x72        0x6e                          leal     (%ebx, %ebx, 1), %edi     0x1                              
0x7f92                           8B6C245C         0x72        0x70                          movl     0x5c(%esp), %ebp          0x1                              
0x7f96                           2BEF             0x72                                      subl     %edi, %ebp                0x1                              
0x7f98                           89681C           0x72        0x6a                          movl     %ebp, 0x1c(%eax)          0x2                              
0x7f9b                           8BB42488000000   0x72        0x6e                          movl     0x88(%esp), %esi          0x1                              
0x7fa2                           2BF1             0x71        0x70                          subl     %ecx, %esi                0x1                              
0x7fa4                           897020           0x71        0x6a                          movl     %esi, 0x20(%eax)          0x2                              
0x7fa7                           8B8C2484000000   0x71        0x6e                          movl     0x84(%esp), %ecx          0x1                              
0x7fae                           2BCF             0x71        0x70                          subl     %edi, %ecx                0x1                              
0x7fb0                           894824           0x71        0x6a                          movl     %ecx, 0x24(%eax)          0x2                              
0x7fb3                           EBAA             0x71        0x6e                          jmp      frame_ME+aad              0x1                              0x3
0x7fb5  frame_ME+b03:            A1188B0C08       0x71        0x70                          movl     0x80c8b18, %eax           0x1                              
0x7fba                           85C0             0x71        0x6a                          testl    %eax, %eax                0x1                              
0x7fbc                           0F84AE000000     0x71        0x70                          je       frame_ME+bbe              0x1                              0x3
0x7fc2  frame_ME+b10:            A198930C08       0x72        0x6a                          movl     0x80c9398, %eax           0x1                              
0x7fc7                           8D8C24B0000000   0x72        0x6e                          leal     0xb0(%esp), %ecx          0x1                              
0x7fce                           8D9424AC000000   0x72        0x70                          leal     0xac(%esp), %edx          0x1                              
0x7fd5                           52               0x72                                      pushl    %edx                      0x3                              
0x7fd6                           51               0x72                                      pushl    %ecx                      0x3                              
0x7fd7                           FF3590930C08     0x72                                      pushl    0x80c9390                 0x4                              
0x7fdd                           50               0x72                                      pushl    %eax                      0x3                              
0x7fde                           6A10             0x72        0x6a                          pushl    $0x10                     0x3                              
0x7fe0                           8B9C2414010000   0x71        0x70                          movl     0x114(%esp), %ebx         0x1                              
0x7fe7                           53               0x71        0x6a                          pushl    %ebx                      0x3                              
0x7fe8                           8BB42414010000   0x71        0x70                          movl     0x114(%esp), %esi         0x1                              
0x7fef                           56               0x71        0x6a                          pushl    %esi                      0x3                              
0x7ff0                           8BBC2414010000   0x71        0x70                          movl     0x114(%esp), %edi         0x1                              
0x7ff7                           57               0x71        0x6a                          pushl    %edi                      0x3                              
0x7ff8                           8B942414010000   0x71        0x70                          movl     0x114(%esp), %edx         0x1                              
0x7fff                           52               0x71                                      pushl    %edx                      0x3                              
0x8000                           50               0x72                                      pushl    %eax                      0x3                              
0x8001                           55               0x72        0x6a                          pushl    %ebp                      0x3                              
0x8002                           8B842414010000   0x72        0x70                          movl     0x114(%esp), %eax         0x1                              
0x8009                           50               0x72        0x6a                          pushl    %eax                      0x3                              
0x800a                           8B842410010000   0x72        0x70                          movl     0x110(%esp), %eax         0x1                              
0x8011                           50               0x72                                      pushl    %eax                      0x3                              
0x8012                           E83B240000       0x72        0x6a                          call     fullsearch                0x4                              0x3
0x8017  frame_ME+b65:            8B1D98930C08     0x72        0x6e                          movl     0x80c9398, %ebx           0x1                              
0x801d                           8B8C24E4000000   0x72        0x70                          movl     0xe4(%esp), %ecx          0x1                              
0x8024                           8B9424E0000000   0x71                                      movl     0xe0(%esp), %edx          0x1                              
0x802b                           898424C4000000   0x71        0x6a                          movl     %eax, 0xc4(%esp)          0x2                              
0x8032                           8BF1             0x71        0x6e                          movl     %ecx, %esi                0x1                              
0x8034                           D1FE             0x71        0x70                          sarl     0x1, %esi                 0x1                              
0x8036                           8BC2             0x71        0x6a                          movl     %edx, %eax                0x1                              
0x8038                           D1F8             0x71        0x6e                          sarl     0x1, %eax                 0x1                              
0x803a                           0FAFC3           0x71        0x70                          imull    %ebx, %eax                0x1                              
0x803d                           83E101           0x71        0x6a                          andl     $0x1, %ecx                0x1                              
0x8040                           83E201           0x72        0x6e                          andl     $0x1, %edx                0x1                              
0x8043                           03F0             0x72        0x70                          addl     %eax, %esi                0x1                              
0x8045                           03B4241C010000   0x72                                      addl     0x11c(%esp), %esi         0x2                              
0x804c                           6A10             0x72                                      pushl    $0x10                     0x3                              
0x804e                           52               0x72                                      pushl    %edx                      0x3                              
0x804f                           51               0x72                                      pushl    %ecx                      0x3                              
0x8050                           53               0x72                                      pushl    %ebx                      0x3                              
0x8051                           55               0x72                                      pushl    %ebp                      0x3                              
0x8052                           56               0x72                                      pushl    %esi                      0x3                              
0x8053                           E8BE330000       0x72        0x6a                          call     dist2                     0x4                              0x3
0x8058  frame_ME+ba6:            8BD8             0x72        0x6e                          movl     %eax, %ebx                0x1                              
0x805a                           83C44C           0x72        0x70                          addl     $0x4c, %esp               0x1                              
0x805d                           8B94240C010000   0x72                                      movl     0x10c(%esp), %edx         0x1                              
0x8064                           C7420402000000   0x71        0x6a                          movl     $0x2, 0x4(%edx)           0x2                              
0x806b                           E98F010000       0x71        0x6e                          jmp      frame_ME+d4d              0x1                              0x3
0x8070  frame_ME+bbe:            8DBC2490000000   0x71        0x70                          leal     0x90(%esp), %edi          0x1                              
0x8077                           8DB4248C000000   0x71        0x6a                          leal     0x8c(%esp), %esi          0x1                              
0x807e                           8D9C2498000000   0x71        0x6e                          leal     0x98(%esp), %ebx          0x1                              
0x8085                           8D8C2494000000   0x72        0x70                          leal     0x94(%esp), %ecx          0x1                              
0x808c                           8D54242C         0x72        0x6a                          leal     0x2c(%esp), %edx          0x1                              
0x8090                           8D44241C         0x72        0x70                          leal     0x1c(%esp), %eax          0x1                              
0x8094                           50               0x72                                      pushl    %eax                      0x3                              
0x8095                           52               0x72                                      pushl    %edx                      0x3                              
0x8096                           51               0x72                                      pushl    %ecx                      0x3                              
0x8097                           53               0x72                                      pushl    %ebx                      0x3                              
0x8098                           56               0x72                                      pushl    %esi                      0x3                              
0x8099                           57               0x72        0x6a                          pushl    %edi                      0x3                              
0x809a                           8D8424B4000000   0x72        0x70                          leal     0xb4(%esp), %eax          0x1                              
0x80a1                           50               0x71        0x6a                          pushl    %eax                      0x3                              
0x80a2                           8D8424BC000000   0x71        0x70                          leal     0xbc(%esp), %eax          0x1                              
0x80a9                           50               0x71        0x6a                          pushl    %eax                      0x3                              
0x80aa                           8D8424C4000000   0x71        0x70                          leal     0xc4(%esp), %eax          0x1                              
0x80b1                           50               0x71        0x6a                          pushl    %eax                      0x3                              
0x80b2                           8D8424CC000000   0x71        0x70                          leal     0xcc(%esp), %eax          0x1                              
0x80b9                           50               0x71        0x6a                          pushl    %eax                      0x3                              
0x80ba                           8D8424D4000000   0x71        0x70                          leal     0xd4(%esp), %eax          0x1                              
0x80c1                           50               0x72        0x6a                          pushl    %eax                      0x3                              
0x80c2                           8D8424DC000000   0x72        0x70                          leal     0xdc(%esp), %eax          0x1                              
0x80c9                           50               0x72        0x6a                          pushl    %eax                      0x3                              
0x80ca                           8B842430010000   0x72        0x70                          movl     0x130(%esp), %eax         0x1                              
0x80d1                           50               0x72        0x6a                          pushl    %eax                      0x3                              
0x80d2                           8B842430010000   0x72        0x70                          movl     0x130(%esp), %eax         0x1                              
0x80d9                           50               0x72        0x6a                          pushl    %eax                      0x3                              
0x80da                           8B842430010000   0x72        0x70                          movl     0x130(%esp), %eax         0x1                              
0x80e1                           50               0x71        0x6a                          pushl    %eax                      0x3                              
0x80e2                           8B842430010000   0x71        0x70                          movl     0x130(%esp), %eax         0x1                              
0x80e9                           50               0x71                                      pushl    %eax                      0x3                              
0x80ea                           55               0x71        0x6a                          pushl    %ebp                      0x3                              
0x80eb                           8B84242C010000   0x71        0x70                          movl     0x12c(%esp), %eax         0x1                              
0x80f2                           50               0x71        0x6a                          pushl    %eax                      0x3                              
0x80f3                           8B842428010000   0x71        0x70                          movl     0x128(%esp), %eax         0x1                              
0x80fa                           50               0x71                                      pushl    %eax                      0x3                              
0x80fb                           E8E8140000       0x71        0x6a                          call     frame_estimate            0x4                              0x3
0x8100  frame_ME+c4e:            83C44C           0x72        0x6e                          addl     $0x4c, %esp               0x1                              
0x8103                           A110920C08       0x72        0x70                          movl     0x80c9210, %eax           0x1                              
0x8108                           83F801           0x72        0x6a                          cmpl     $0x1, %eax                0x1                              
0x810b                           0F843B030000     0x72        0x70                          je       frame_ME+f9a              0x1                              0x3
0x8111  frame_ME+c5f:            83F801           0x72        0x6a                          cmpl     $0x1, %eax                0x1                              
0x8114                           0F84E4020000     0x72        0x70                          je       frame_ME+f4c              0x1                              0x3
0x811a  frame_ME+c68:            8B842490000000   0x72        0x6a                          movl     0x90(%esp), %eax          0x1                              
0x8121                           8B8C248C000000   0x71        0x6e                          movl     0x8c(%esp), %ecx          0x1                              
0x8128  frame_ME+c76:            3BC1             0x71        0x70                          cmpl     %ecx, %eax                0x1                              
0x812a                           0F8E7C020000     0x71                                      jle      frame_ME+efa              0x1                              0x3
0x8130  frame_ME+c7e:            8B84240C010000   0x71        0x6a                          movl     0x10c(%esp), %eax         0x1                              
0x8137                           8B942498000000   0x71        0x70                          movl     0x98(%esp), %edx          0x1                              
0x813e                           898C2490000000   0x71        0x6a                          movl     %ecx, 0x90(%esp)          0x2                              
0x8145                           85D2             0x72        0x70                          testl    %edx, %edx                0x1                              
0x8147                           C7400401000000   0x72        0x6a                          movl     $0x1, 0x4(%eax)           0x2                              
0x814e                           A198930C08       0x72        0x6e                          movl     0x80c9398, %eax           0x1                              
0x8153                           7404             0x72        0x70                          je       frame_ME+ca7              0x1                              0x3
0x8155  frame_ME+ca3:            8BC8             0x72        0x6a                          movl     %eax, %ecx                0x1                              
0x8157                           EB02             0x72        0x6e                          jmp      frame_ME+ca9              0x1                              0x3
0x8159  frame_ME+ca7:            33C9             0x72        0x70                          xorl     %ecx, %ecx                0x1                              
0x815b  frame_ME+ca9:            8BB424A8000000   0x72        0x6a                          movl     0xa8(%esp), %esi          0x1                              
0x8162                           8B9C24A4000000   0x71        0x6e                          movl     0xa4(%esp), %ebx          0x1                              
0x8169                           03C0             0x71        0x70                          addl     %eax, %eax                0x1                              
0x816b                           8BFE             0x71        0x6a                          movl     %esi, %edi                0x1                              
0x816d                           D1FF             0x71        0x6e                          sarl     0x1, %edi                 0x1                              
0x816f                           8BD3             0x71        0x70                          movl     %ebx, %edx                0x1                              
0x8171                           D1FA             0x71        0x6a                          sarl     0x1, %edx                 0x1                              
0x8173                           0FAFD0           0x71        0x6e                          imull    %eax, %edx                0x1                              
0x8176                           83E601           0x71        0x70                          andl     $0x1, %esi                0x1                              
0x8179                           83E301           0x71        0x6a                          andl     $0x1, %ebx                0x1                              
0x817c                           03FA             0x71        0x70                          addl     %edx, %edi                0x1                              
0x817e                           03BC24E8000000   0x71        0x6a                          addl     0xe8(%esp), %edi          0x2                              
0x8185                           03F9             0x72        0x70                          addl     %ecx, %edi                0x1                              
0x8187                           6A08             0x72                                      pushl    $0x8                      0x3                              
0x8189                           53               0x72                                      pushl    %ebx                      0x3                              
0x818a                           56               0x72                                      pushl    %esi                      0x3                              
0x818b                           50               0x72                                      pushl    %eax                      0x3                              
0x818c                           55               0x72                                      pushl    %ebp                      0x3                              
0x818d                           57               0x72                                      pushl    %edi                      0x3                              
0x818e                           E883320000       0x72        0x6a                          call     dist2                     0x4                              0x3
0x8193  frame_ME+ce1:            8BD8             0x72        0x6e                          movl     %eax, %ebx                0x1                              
0x8195                           83C418           0x72        0x70                          addl     $0x18, %esp               0x1                              
0x8198                           8B1598930C08     0x72        0x6a                          movl     0x80c9398, %edx           0x1                              
0x819e                           8B8C2494000000   0x72        0x6e                          movl     0x94(%esp), %ecx          0x1                              
0x81a5                           85C9             0x71        0x70                          testl    %ecx, %ecx                0x1                              
0x81a7                           7406             0x71                                      je       frame_ME+cfd              0x1                              0x3
0x81a9  frame_ME+cf7:            89542404         0x71        0x6a                          movl     %edx, 0x4(%esp)           0x2                              
0x81ad                           EB06             0x71        0x6e                          jmp      frame_ME+d03              0x1                              0x3
0x81af  frame_ME+cfd:            33C9             0x71        0x70                          xorl     %ecx, %ecx                0x1                              
0x81b1                           894C2404         0x71        0x6a                          movl     %ecx, 0x4(%esp)           0x2                              
0x81b5  frame_ME+d03:            8B8C249C000000   0x71        0x70                          movl     0x9c(%esp), %ecx          0x1                              
0x81bc                           895C2418         0x71        0x6a                          movl     %ebx, 0x18(%esp)          0x2                              
0x81c0                           8B9C24A0000000   0x72        0x6e                          movl     0xa0(%esp), %ebx          0x1                              
0x81c7                           8D3412           0x72        0x70                          leal     (%edx, %edx, 1), %esi     0x1                              
0x81ca                           8BFB             0x72        0x6a                          movl     %ebx, %edi                0x1                              
0x81cc                           D1FF             0x72        0x6e                          sarl     0x1, %edi                 0x1                              
0x81ce                           8BC1             0x72        0x70                          movl     %ecx, %eax                0x1                              
0x81d0                           D1F8             0x72        0x6a                          sarl     0x1, %eax                 0x1                              
0x81d2                           0FAFC6           0x72        0x6e                          imull    %esi, %eax                0x1                              
0x81d5                           03D5             0x72        0x70                          addl     %ebp, %edx                0x1                              
0x81d7                           83E301           0x72        0x6a                          andl     $0x1, %ebx                0x1                              
0x81da                           03F8             0x72        0x70                          addl     %eax, %edi                0x1                              
0x81dc                           03BC24E8000000   0x72        0x6a                          addl     0xe8(%esp), %edi          0x2                              
0x81e3                           83E101           0x71        0x70                          andl     $0x1, %ecx                0x1                              
0x81e6                           037C2404         0x71                                      addl     0x4(%esp), %edi           0x2                              
0x81ea                           6A08             0x71                                      pushl    $0x8                      0x3                              
0x81ec                           51               0x71                                      pushl    %ecx                      0x3                              
0x81ed                           53               0x71                                      pushl    %ebx                      0x3                              
0x81ee                           56               0x71                                      pushl    %esi                      0x3                              
0x81ef                           52               0x71                                      pushl    %edx                      0x3                              
0x81f0                           57               0x71        0x6a                          pushl    %edi                      0x3                              
0x81f1                           8B5C2430         0x71        0x70                          movl     0x30(%esp), %ebx          0x1                              
0x81f5                           E81C320000       0x71        0x6a                          call     dist2                     0x4                              0x3
0x81fa  frame_ME+d48:            83C418           0x71        0x6e                          addl     $0x18, %esp               0x1                              
0x81fd                           03D8             0x71        0x70                          addl     %eax, %ebx                0x1                              
0x81ff  frame_ME+d4d:            8B54240C         0x71        0x6a                          movl     0xc(%esp), %edx           0x1                              
0x8203                           3BDA             0x72        0x6e                          cmpl     %edx, %ebx                0x1                              
0x8205                           7E1A             0x72        0x70                          jle      frame_ME+d6f              0x1                              0x3
0x8207  frame_ME+d55:            81FB00090000     0x72        0x6a                          cmpl     $0x900, %ebx              0x1                              
0x820d                           7C12             0x72        0x70                          jnge     frame_ME+d6f              0x1                              0x3
0x820f  frame_ME+d5d:            8B84240C010000   0x72                                      movl     0x10c(%esp), %eax         0x1                              
0x8216                           C70001000000     0x72        0x6a                          movl     $0x1, (%eax)              0x2                              
0x821c                           E93EFDFFFF       0x72        0x6e                          jmp      frame_ME+aad              0x1                              0x3
0x8221  frame_ME+d6f:            8B1598930C08     0x71        0x70                          movl     0x80c9398, %edx           0x1                              
0x8227                           8B8C24F8000000   0x71        0x6a                          movl     0xf8(%esp), %ecx          0x1                              
0x822e                           8BB424E8000000   0x71        0x6e                          movl     0xe8(%esp), %esi          0x1                              
0x8235                           8BBC24F4000000   0x71        0x70                          movl     0xf4(%esp), %edi          0x1                              
0x823c                           0FAFCA           0x71        0x6a                          imull    %edx, %ecx                0x1                              
0x823f                           8D343E           0x71        0x6e                          leal     (%esi, %edi, 1), %esi     0x1                              
0x8242                           03F1             0x72        0x70                          addl     %ecx, %esi                0x1                              
0x8244                           6A10             0x72        0x6a                          pushl    $0x10                     0x3                              
0x8246                           33C9             0x72        0x70                          xorl     %ecx, %ecx                0x1                              
0x8248                           51               0x72                                      pushl    %ecx                      0x3                              
0x8249                           51               0x72                                      pushl    %ecx                      0x3                              
0x824a                           52               0x72                                      pushl    %edx                      0x3                              
0x824b                           55               0x72                                      pushl    %ebp                      0x3                              
0x824c                           56               0x72                                      pushl    %esi                      0x3                              
0x824d                           E8C4310000       0x72                                      call     dist2                     0x4                              0x3
0x8252  frame_ME+da0:            89442424         0x72        0x6a                          movl     %eax, 0x24(%esp)          0x2                              
0x8256                           83C418           0x72        0x6e                          addl     $0x18, %esp               0x1                              
0x8259                           8BD0             0x72        0x70                          movl     %eax, %edx                0x1                              
0x825b                           8D0C12           0x72        0x6a                          leal     (%edx, %edx, 1), %ecx     0x1                              
0x825e                           03C9             0x72        0x6e                          addl     %ecx, %ecx                0x1                              
0x8260                           8D2C1B           0x71        0x70                          leal     (%ebx, %ebx, 1), %ebp     0x1                              
0x8263                           03ED             0x71        0x6a                          addl     %ebp, %ebp                0x1                              
0x8265                           03EB             0x71        0x6e                          addl     %ebx, %ebp                0x1                              
0x8267                           3BCD             0x71        0x70                          cmpl     %ebp, %ecx                0x1                              
0x8269                           0F8E9A000000     0x71                                      jle      frame_ME+e57              0x1                              0x3
0x826f  frame_ME+dbd:            81FA00090000     0x71        0x6a                          cmpl     $0x900, %edx              0x1                              
0x8275                           0F8C8E000000     0x71        0x70                          jnge     frame_ME+e57              0x1                              0x3
0x827b  frame_ME+dc9:            8B84240C010000   0x71                                      movl     0x10c(%esp), %eax         0x1                              
0x8282                           C70008000000     0x72        0x6a                          movl     $0x8, (%eax)              0x2                              
0x8288                           8B4004           0x72        0x6e                          movl     0x4(%eax), %eax           0x1                              
0x828b                           83F802           0x72        0x70                          cmpl     $0x2, %eax                0x1                              
0x828e                           895C240C         0x72        0x6a                          movl     %ebx, 0xc(%esp)           0x2                              
0x8292                           0F84DC000000     0x72        0x70                          je       frame_ME+ec2              0x1                              0x3
0x8298  frame_ME+de6:            83F803           0x72        0x6a                          cmpl     $0x3, %eax                0x1                              
0x829b                           0F8485000000     0x72        0x70                          je       frame_ME+e74              0x1                              0x3
0x82a1  frame_ME+def:            8B9424F4000000   0x71        0x6a                          movl     0xf4(%esp), %edx          0x1                              
0x82a8                           8B8C24A8000000   0x71        0x6e                          movl     0xa8(%esp), %ecx          0x1                              
0x82af                           8B84240C010000   0x71        0x70                          movl     0x10c(%esp), %eax         0x1                              
0x82b6                           8B9C24F8000000   0x71        0x6a                          movl     0xf8(%esp), %ebx          0x1                              
0x82bd                           8D3412           0x71        0x6e                          leal     (%edx, %edx, 1), %esi     0x1                              
0x82c0                           2BCE             0x72        0x70                          subl     %esi, %ecx                0x1                              
0x82c2                           894818           0x72        0x6a                          movl     %ecx, 0x18(%eax)          0x2                              
0x82c5                           8BAC24A4000000   0x72        0x6e                          movl     0xa4(%esp), %ebp          0x1                              
0x82cc                           8D141B           0x72        0x70                          leal     (%ebx, %ebx, 1), %edx     0x1                              
0x82cf                           03ED             0x72        0x6a                          addl     %ebp, %ebp                0x1                              
0x82d1                           2BEA             0x72        0x70                          subl     %edx, %ebp                0x1                              
0x82d3                           89681C           0x72        0x6a                          movl     %ebp, 0x1c(%eax)          0x2                              
0x82d6                           8BBC24A0000000   0x72        0x6e                          movl     0xa0(%esp), %edi          0x1                              
0x82dd                           2BFE             0x72        0x70                          subl     %esi, %edi                0x1                              
0x82df                           897828           0x72        0x6a                          movl     %edi, 0x28(%eax)          0x2                              
0x82e2                           8B8C249C000000   0x71        0x6e                          movl     0x9c(%esp), %ecx          0x1                              
0x82e9                           03C9             0x71        0x70                          addl     %ecx, %ecx                0x1                              
0x82eb                           2BCA             0x71                                      subl     %edx, %ecx                0x1                              
0x82ed                           89482C           0x71        0x6a                          movl     %ecx, 0x2c(%eax)          0x2                              
0x82f0                           8B942498000000   0x71        0x70                          movl     0x98(%esp), %edx          0x1                              
0x82f7                           895038           0x71        0x6a                          movl     %edx, 0x38(%eax)          0x2                              
0x82fa                           8B942494000000   0x71        0x70                          movl     0x94(%esp), %edx          0x1                              
0x8301                           895040           0x72        0x6a                          movl     %edx, 0x40(%eax)          0x2                              
0x8304                           E956FCFFFF       0x72        0x6e                          jmp      frame_ME+aad              0x1                              0x3
0x8309  frame_ME+e57:            8B94240C010000   0x72        0x70                          movl     0x10c(%esp), %edx         0x1                              
0x8310                           C7420402000000   0x72        0x6a                          movl     $0x2, 0x4(%edx)           0x2                              
0x8317                           33C0             0x72        0x70                          xorl     %eax, %eax                0x1                              
0x8319                           8902             0x72                                      movl     %eax, (%edx)              0x2                              
0x831b                           894218           0x72                                      movl     %eax, 0x18(%edx)          0x2                              
0x831e                           89421C           0x72        0x6a                          movl     %eax, 0x1c(%edx)          0x2                              
0x8321                           E939FCFFFF       0x71        0x6e                          jmp      frame_ME+aad              0x1                              0x3
0x8326  frame_ME+e74:            8B8424F4000000   0x71        0x70                          movl     0xf4(%esp), %eax          0x1                              
0x832d                           8B8C24C8000000   0x71        0x6a                          movl     0xc8(%esp), %ecx          0x1                              
0x8334                           8B9C24F8000000   0x71        0x6e                          movl     0xf8(%esp), %ebx          0x1                              
0x833b                           8D1400           0x71        0x70                          leal     (%eax, %eax, 1), %edx     0x1                              
0x833e                           2BCA             0x71        0x6a                          subl     %edx, %ecx                0x1                              
0x8340                           8D2C1B           0x72        0x6e                          leal     (%ebx, %ebx, 1), %ebp     0x1                              
0x8343                           8B94240C010000   0x72        0x70                          movl     0x10c(%esp), %edx         0x1                              
0x834a                           894A18           0x72        0x6a                          movl     %ecx, 0x18(%edx)          0x2                              
0x834d                           8BB424C4000000   0x72        0x6e                          movl     0xc4(%esp), %esi          0x1                              
0x8354                           03F6             0x72        0x70                          addl     %esi, %esi                0x1                              
0x8356                           2BF5             0x72                                      subl     %ebp, %esi                0x1                              
0x8358                           89721C           0x72        0x6a                          movl     %esi, 0x1c(%edx)          0x2                              
0x835b                           8BBC24C0000000   0x72        0x70                          movl     0xc0(%esp), %edi          0x1                              
0x8362                           897A48           0x71        0x6a                          movl     %edi, 0x48(%edx)          0x2                              
0x8365                           8B8424BC000000   0x71        0x70                          movl     0xbc(%esp), %eax          0x1                              
0x836c                           89424C           0x71        0x6a                          movl     %eax, 0x4c(%edx)          0x2                              
0x836f                           E9EBFBFFFF       0x71        0x6e                          jmp      frame_ME+aad              0x1                              0x3
0x8374  frame_ME+ec2:            8B8424F4000000   0x71        0x70                          movl     0xf4(%esp), %eax          0x1                              
0x837b                           8B8C24B0000000   0x71        0x6a                          movl     0xb0(%esp), %ecx          0x1                              
0x8382                           8BBC240C010000   0x72        0x6e                          movl     0x10c(%esp), %edi         0x1                              
0x8389                           8B9C24F8000000   0x72        0x70                          movl     0xf8(%esp), %ebx          0x1                              
0x8390                           8D1400           0x72        0x6a                          leal     (%eax, %eax, 1), %edx     0x1                              
0x8393                           2BCA             0x72        0x70                          subl     %edx, %ecx                0x1                              
0x8395                           894F18           0x72        0x6a                          movl     %ecx, 0x18(%edi)          0x2                              
0x8398                           8BB424AC000000   0x72        0x6e                          movl     0xac(%esp), %esi          0x1                              
0x839f                           8D2C1B           0x72        0x70                          leal     (%ebx, %ebx, 1), %ebp     0x1                              
0x83a2                           2BF5             0x71                                      subl     %ebp, %esi                0x1                              
0x83a4                           89771C           0x71        0x6a                          movl     %esi, 0x1c(%edi)          0x2                              
0x83a7                           E9B3FBFFFF       0x71        0x6e                          jmp      frame_ME+aad              0x1                              0x3
0x83ac  frame_ME+efa:            8B84240C010000   0x71        0x70                          movl     0x10c(%esp), %eax         0x1                              
0x83b3                           8B3598930C08     0x71        0x6a                          movl     0x80c9398, %esi           0x1                              
0x83b9                           8B9C24B0000000   0x71        0x6e                          movl     0xb0(%esp), %ebx          0x1                              
0x83c0                           8B8C24AC000000   0x72        0x70                          movl     0xac(%esp), %ecx          0x1                              
0x83c7                           8BFB             0x72        0x6a                          movl     %ebx, %edi                0x1                              
0x83c9                           D1FF             0x72        0x70                          sarl     0x1, %edi                 0x1                              
0x83cb                           C7400402000000   0x72        0x6a                          movl     $0x2, 0x4(%eax)           0x2                              
0x83d2                           8BD1             0x72        0x6e                          movl     %ecx, %edx                0x1                              
0x83d4                           D1FA             0x72        0x70                          sarl     0x1, %edx                 0x1                              
0x83d6                           0FAFD6           0x72        0x6a                          imull    %esi, %edx                0x1                              
0x83d9                           83E301           0x72        0x6e                          andl     $0x1, %ebx                0x1                              
0x83dc                           83E101           0x72        0x70                          andl     $0x1, %ecx                0x1                              
0x83df                           03FA             0x72                                      addl     %edx, %edi                0x1                              
0x83e1                           03BC24E8000000   0x71                                      addl     0xe8(%esp), %edi          0x2                              
0x83e8                           6A10             0x71                                      pushl    $0x10                     0x3                              
0x83ea                           51               0x71                                      pushl    %ecx                      0x3                              
0x83eb                           53               0x71                                      pushl    %ebx                      0x3                              
0x83ec                           56               0x71                                      pushl    %esi                      0x3                              
0x83ed                           55               0x71                                      pushl    %ebp                      0x3                              
0x83ee                           57               0x71                                      pushl    %edi                      0x3                              
0x83ef                           E822300000       0x71        0x6a                          call     dist2                     0x4                              0x3
0x83f4  frame_ME+f42:            8BD8             0x71        0x6e                          movl     %eax, %ebx                0x1                              
0x83f6                           83C418           0x71        0x70                          addl     $0x18, %esp               0x1                              
0x83f9                           E901FEFFFF       0x71        0x6a                          jmp      frame_ME+d4d              0x1                              0x3
0x83fe  frame_ME+f4c:            8B842490000000   0x71        0x6e                          movl     0x90(%esp), %eax          0x1                              
0x8405                           8B9424B8000000   0x72        0x70                          movl     0xb8(%esp), %edx          0x1                              
0x840c                           3BD0             0x72        0x6a                          cmpl     %eax, %edx                0x1                              
0x840e                           7D30             0x72        0x70                          jge      frame_ME+f8e              0x1                              0x3
0x8410  frame_ME+f5e:            8B8C248C000000   0x72        0x6a                          movl     0x8c(%esp), %ecx          0x1                              
0x8417                           3BD1             0x72        0x6e                          cmpl     %ecx, %edx                0x1                              
0x8419                           0F8D09FDFFFF     0x72        0x70                          jge      frame_ME+c76              0x1                              0x3
0x841f  frame_ME+f6d:            8B84240C010000   0x72        0x6a                          movl     0x10c(%esp), %eax         0x1                              
0x8426                           8B9C24B4000000   0x71        0x70                          movl     0xb4(%esp), %ebx          0x1                              
0x842d                           C7400403000000   0x71                                      movl     $0x3, 0x4(%eax)           0x2                              
0x8434                           89942490000000   0x71        0x6a                          movl     %edx, 0x90(%esp)          0x2                              
0x843b                           E9BFFDFFFF       0x71        0x6e                          jmp      frame_ME+d4d              0x1                              0x3
0x8440  frame_ME+f8e:            8B8C248C000000   0x72        0x70                          movl     0x8c(%esp), %ecx          0x1                              
0x8447                           E9DCFCFFFF       0x72        0x6a                          jmp      frame_ME+c76              0x1                              0x3
0x844c  frame_ME+f9a:            8B8424F8000000   0x72        0x6e                          movl     0xf8(%esp), %eax          0x1                              
0x8453                           8DBC24C4000000   0x72        0x70                          leal     0xc4(%esp), %edi          0x1                              
0x845a                           8DB424C0000000   0x72        0x6a                          leal     0xc0(%esp), %esi          0x1                              
0x8461                           8D9C24BC000000   0x71        0x6e                          leal     0xbc(%esp), %ebx          0x1                              
0x8468                           D1F8             0x71        0x70                          sarl     0x1, %eax                 0x1                              
0x846a                           8D8C24B8000000   0x71        0x6a                          leal     0xb8(%esp), %ecx          0x1                              
0x8471                           8D9424B4000000   0x71        0x70                          leal     0xb4(%esp), %edx          0x1                              
0x8478                           52               0x71                                      pushl    %edx                      0x3                              
0x8479                           51               0x71                                      pushl    %ecx                      0x3                              
0x847a                           53               0x71                                      pushl    %ebx                      0x3                              
0x847b                           56               0x71                                      pushl    %esi                      0x3                              
0x847c                           57               0x71        0x6a                          pushl    %edi                      0x3                              
0x847d                           8D9424DC000000   0x71        0x70                          leal     0xdc(%esp), %edx          0x1                              
0x8484                           52               0x72        0x6a                          pushl    %edx                      0x3                              
0x8485                           8D542434         0x72        0x70                          leal     0x34(%esp), %edx          0x1                              
0x8489                           52               0x72        0x6a                          pushl    %edx                      0x3                              
0x848a                           8D542448         0x72        0x70                          leal     0x48(%esp), %edx          0x1                              
0x848e                           52               0x72                                      pushl    %edx                      0x3                              
0x848f                           50               0x72        0x6a                          pushl    %eax                      0x3                              
0x8490                           8B842418010000   0x72        0x70                          movl     0x118(%esp), %eax         0x1                              
0x8497                           50               0x72                                      pushl    %eax                      0x3                              
0x8498                           55               0x72        0x6a                          pushl    %ebp                      0x3                              
0x8499                           8B842414010000   0x72        0x70                          movl     0x114(%esp), %eax         0x1                              
0x84a0                           50               0x71                                      pushl    %eax                      0x3                              
0x84a1                           E8B2170000       0x71        0x6a                          call     dpframe_estimate          0x4                              0x3
0x84a6  frame_ME+ff4:            83C430           0x71        0x6e                          addl     $0x30, %esp               0x1                              
0x84a9                           A110920C08       0x71        0x70                          movl     0x80c9210, %eax           0x1                              
0x84ae                           E95EFCFFFF       0x71        0x6a                          jmp      frame_ME+c5f              0x1                              0x3
0x84b3  frame_ME+1001:           8B84240C010000   0x71        0x70                          movl     0x10c(%esp), %eax         0x1                              
0x84ba                           C70001000000     0x71        0x6a                          movl     $0x1, (%eax)              0x2                              
0x84c0                           E99AFAFFFF       0x72        0x6e                          jmp      frame_ME+aad              0x1                              0x3
0x84c5  frame_ME+1013:           90               0x72        0x70                          nop                                0x1                              
0x84c6  field_ME:                57               0x72                                      pushl    %edi                      0x3                              
0x84c7                           56               0x72                                      pushl    %esi                      0x3                              
0x84c8                           55               0x72                                      pushl    %ebp                      0x3                              
0x84c9                           53               0x72        0x6a                          pushl    %ebx                      0x3                              
0x84ca                           81EC28010000     0x72        0x6e                          subl     $0x128, %esp              0x1                              
0x84d0                           8B9C243C010000   0x72        0x70                          movl     0x13c(%esp), %ebx         0x1                              
0x84d7                           8B842444010000   0x72        0x6a                          movl     0x144(%esp), %eax         0x1                              
0x84de                           8B94244C010000   0x72        0x6e                          movl     0x14c(%esp), %edx         0x1                              
0x84e5                           8B8C2454010000   0x71        0x70                          movl     0x154(%esp), %ecx         0x1                              
0x84ec                           8BB42458010000   0x71                                      movl     0x158(%esp), %esi         0x1                              
0x84f3                           89442474         0x71        0x6a                          movl     %eax, 0x74(%esp)          0x2                              
0x84f7                           8D2C0A           0x71        0x6e                          leal     (%edx, %ecx, 1), %ebp     0x1                              
0x84fa                           A198930C08       0x71        0x70                          movl     0x80c9398, %eax           0x1                              
0x84ff                           8B159C930C08     0x71        0x6a                          movl     0x80c939c, %edx           0x1                              
0x8505                           8D3C00           0x72        0x6e                          leal     (%eax, %eax, 1), %edi     0x1                              
0x8508                           0FAFF7           0x72        0x70                          imull    %edi, %esi                0x1                              
0x850b                           03EE             0x72        0x6a                          addl     %esi, %ebp                0x1                              
0x850d                           83FA02           0x72        0x6e                          cmpl     $0x2, %edx                0x1                              
0x8510                           7502             0x72        0x70                          jnz      field_ME+4e               0x1                              0x3
0x8512  field_ME+4c:             03E8             0x72                                      addl     %eax, %ebp                0x1                              
0x8514  field_ME+4e:             57               0x72                                      pushl    %edi                      0x3                              
0x8515                           55               0x72                                      pushl    %ebp                      0x3                              
0x8516                           E8AF390000       0x72                                      call     variance                  0x4                              0x3
0x851b  field_ME+55:             89442478         0x72        0x6a                          movl     %eax, 0x78(%esp)          0x2                              
0x851f                           83C408           0x72        0x6e                          addl     $0x8, %esp                0x1                              
0x8522                           A1A48A0C08       0x71        0x70                          movl     0x80c8aa4, %eax           0x1                              
0x8527                           83F801           0x71        0x6a                          cmpl     $0x1, %eax                0x1                              
0x852a                           0F84A6100000     0x71        0x70                          je       field_ME+1110             0x1                              0x3
0x8530  field_ME+6a:             83F802           0x71        0x6a                          cmpl     $0x2, %eax                0x1                              
0x8533                           0F85DB030000     0x71        0x70                          jnz      field_ME+44e              0x1                              0x3
0x8539  field_ME+73:             8B0D98930C08     0x71        0x6a                          movl     0x80c9398, %ecx           0x1                              
0x853f                           8B542474         0x71        0x70                          movl     0x74(%esp), %edx          0x1                              
0x8543                           894C2468         0x72        0x6a                          movl     %ecx, 0x68(%esp)          0x2                              
0x8547                           8D040B           0x72        0x70                          leal     (%ebx, %ecx, 1), %eax     0x1                              
0x854a                           8944246C         0x72        0x6a                          movl     %eax, 0x6c(%esp)          0x2                              
0x854e                           8D040A           0x72        0x70                          leal     (%edx, %ecx, 1), %eax     0x1                              
0x8551                           89442464         0x72        0x6a                          movl     %eax, 0x64(%esp)          0x2                              
0x8555                           8B842470010000   0x72        0x6e                          movl     0x170(%esp), %eax         0x1                              
0x855c                           85C0             0x72        0x70                          testl    %eax, %eax                0x1                              
0x855e                           7420             0x72                                      je       field_ME+ba               0x1                              0x3
0x8560  field_ME+9a:             A19C930C08       0x71        0x6a                          movl     0x80c939c, %eax           0x1                              
0x8565                           83F801           0x71        0x6e                          cmpl     $0x1, %eax                0x1                              
0x8568                           0F846A0E0000     0x71        0x70                          je       field_ME+f12              0x1                              0x3
0x856e  field_ME+a8:             8B9C244C010000   0x71        0x6a                          movl     0x14c(%esp), %ebx         0x1                              
0x8575                           8B842450010000   0x71        0x70                          movl     0x150(%esp), %eax         0x1                              
0x857c                           89442474         0x71        0x6a                          movl     %eax, 0x74(%esp)          0x2                              
0x8580  field_ME+ba:             8B442474         0x72        0x6e                          movl     0x74(%esp), %eax          0x1                              
0x8584                           8B54246C         0x72        0x70                          movl     0x6c(%esp), %edx          0x1                              
0x8588                           8B4C2464         0x72                                      movl     0x64(%esp), %ecx          0x1                              
0x858c                           891C24           0x72        0x6a                          movl     %ebx, (%esp)              0x2                              
0x858f                           8B9C2454010000   0x72        0x70                          movl     0x154(%esp), %ebx         0x1                              
0x8596                           89442404         0x72        0x6a                          movl     %eax, 0x4(%esp)           0x2                              
0x859a                           8B842458010000   0x72        0x70                          movl     0x158(%esp), %eax         0x1                              
0x85a1                           89542408         0x71                                      movl     %edx, 0x8(%esp)           0x2                              
0x85a5                           894C240C         0x71                                      movl     %ecx, 0xc(%esp)           0x2                              
0x85a9                           896C2410         0x71                                      movl     %ebp, 0x10(%esp)          0x2                              
0x85ad                           895C2414         0x71                                      movl     %ebx, 0x14(%esp)          0x2                              
0x85b1                           89442418         0x71        0x6a                          movl     %eax, 0x18(%esp)          0x2                              
0x85b5                           8B84245C010000   0x71        0x70                          movl     0x15c(%esp), %eax         0x1                              
0x85bc                           8944241C         0x71        0x6a                          movl     %eax, 0x1c(%esp)          0x2                              
0x85c0                           8B842460010000   0x72        0x70                          movl     0x160(%esp), %eax         0x1                              
0x85c7                           89442420         0x72        0x6a                          movl     %eax, 0x20(%esp)          0x2                              
0x85cb                           8B842474010000   0x72        0x70                          movl     0x174(%esp), %eax         0x1                              
0x85d2                           89442424         0x72        0x6a                          movl     %eax, 0x24(%esp)          0x2                              
0x85d6                           8D842414010000   0x72        0x70                          leal     0x114(%esp), %eax         0x1                              
0x85dd                           89442428         0x72        0x6a                          movl     %eax, 0x28(%esp)          0x2                              
0x85e1                           8D842410010000   0x71        0x70                          leal     0x110(%esp), %eax         0x1                              
0x85e8                           8944242C         0x71        0x6a                          movl     %eax, 0x2c(%esp)          0x2                              
0x85ec                           8D84240C010000   0x71        0x70                          leal     0x10c(%esp), %eax         0x1                              
0x85f3                           89442430         0x71        0x6a                          movl     %eax, 0x30(%esp)          0x2                              
0x85f7                           8D842408010000   0x71        0x70                          leal     0x108(%esp), %eax         0x1                              
0x85fe                           89442434         0x71        0x6a                          movl     %eax, 0x34(%esp)          0x2                              
0x8602                           8D842404010000   0x72        0x70                          leal     0x104(%esp), %eax         0x1                              
0x8609                           89442438         0x72        0x6a                          movl     %eax, 0x38(%esp)          0x2                              
0x860d                           8D842400010000   0x72        0x70                          leal     0x100(%esp), %eax         0x1                              
0x8614                           8944243C         0x72        0x6a                          movl     %eax, 0x3c(%esp)          0x2                              
0x8618                           8D8424EC000000   0x72        0x70                          leal     0xec(%esp), %eax          0x1                              
0x861f                           89442440         0x72        0x6a                          movl     %eax, 0x40(%esp)          0x2                              
0x8623                           8D8424F0000000   0x71        0x70                          leal     0xf0(%esp), %eax          0x1                              
0x862a                           89442444         0x71        0x6a                          movl     %eax, 0x44(%esp)          0x2                              
0x862e                           8D8424FC000000   0x71        0x70                          leal     0xfc(%esp), %eax          0x1                              
0x8635                           89442448         0x71        0x6a                          movl     %eax, 0x48(%esp)          0x2                              
0x8639                           8D8424F8000000   0x71        0x70                          leal     0xf8(%esp), %eax          0x1                              
0x8640                           8944244C         0x72        0x6a                          movl     %eax, 0x4c(%esp)          0x2                              
0x8644                           8D8424F4000000   0x72        0x70                          leal     0xf4(%esp), %eax          0x1                              
0x864b                           89442450         0x72        0x6a                          movl     %eax, 0x50(%esp)          0x2                              
0x864f                           8D842490000000   0x72        0x70                          leal     0x90(%esp), %eax          0x1                              
0x8656                           89442454         0x72        0x6a                          movl     %eax, 0x54(%esp)          0x2                              
0x865a                           8D84248C000000   0x72        0x70                          leal     0x8c(%esp), %eax          0x1                              
0x8661                           89442458         0x71        0x6a                          movl     %eax, 0x58(%esp)          0x2                              
0x8665                           8D842488000000   0x71        0x70                          leal     0x88(%esp), %eax          0x1                              
0x866c                           8944245C         0x71                                      movl     %eax, 0x5c(%esp)          0x2                              
0x8670                           E80D120000       0x71        0x6a                          call     field_estimate            0x4                              0x3
0x8675  field_ME+1af:            8B1510920C08     0x71        0x6e                          movl     0x80c9210, %edx           0x1                              
0x867b                           83FA01           0x71        0x70                          cmpl     $0x1, %edx                0x1                              
0x867e                           0F84870E0000     0x71                                      je       field_ME+1045             0x1                              0x3
0x8684  field_ME+1be:            83FA01           0x72        0x6a                          cmpl     $0x1, %edx                0x1                              
0x8687                           0F84190E0000     0x72        0x70                          je       field_ME+fe0              0x1                              0x3
0x868d  field_ME+1c7:            8B9424F0000000   0x72        0x6a                          movl     0xf0(%esp), %edx          0x1                              
0x8694                           8B8C24EC000000   0x72        0x6e                          movl     0xec(%esp), %ecx          0x1                              
0x869b  field_ME+1d5:            3BD1             0x72        0x70                          cmpl     %ecx, %edx                0x1                              
0x869d                           0F8DCB000000     0x72                                      jge      field_ME+2a8              0x1                              0x3
0x86a3  field_ME+1dd:            8B84246C010000   0x71        0x6a                          movl     0x16c(%esp), %eax         0x1                              
0x86aa                           8B9424F8000000   0x71        0x70                          movl     0xf8(%esp), %edx          0x1                              
0x86b1                           C7400402000000   0x71        0x6a                          movl     $0x2, 0x4(%eax)           0x2                              
0x86b8                           85D2             0x71        0x6e                          testl    %edx, %edx                0x1                              
0x86ba                           740A             0x71        0x70                          je       field_ME+200              0x1                              0x3
0x86bc  field_ME+1f6:            8B442464         0x71                                      movl     0x64(%esp), %eax          0x1                              
0x86c0                           89442460         0x72        0x6a                          movl     %eax, 0x60(%esp)          0x2                              
0x86c4                           EB08             0x72        0x6e                          jmp      field_ME+208              0x1                              0x3
0x86c6  field_ME+200:            8B442474         0x72        0x70                          movl     0x74(%esp), %eax          0x1                              
0x86ca                           89442460         0x72        0x6a                          movl     %eax, 0x60(%esp)          0x2                              
0x86ce  field_ME+208:            8B8C240C010000   0x72        0x6e                          movl     0x10c(%esp), %ecx         0x1                              
0x86d5                           8B942408010000   0x72        0x70                          movl     0x108(%esp), %edx         0x1                              
0x86dc                           8BD9             0x72        0x6a                          movl     %ecx, %ebx                0x1                              
0x86de                           D1FB             0x72        0x6e                          sarl     0x1, %ebx                 0x1                              
0x86e0                           8BC2             0x71        0x70                          movl     %edx, %eax                0x1                              
0x86e2                           D1F8             0x71        0x6a                          sarl     0x1, %eax                 0x1                              
0x86e4                           0FAFC7           0x71        0x6e                          imull    %edi, %eax                0x1                              
0x86e7                           83E101           0x71        0x70                          andl     $0x1, %ecx                0x1                              
0x86ea                           83E201           0x71        0x6a                          andl     $0x1, %edx                0x1                              
0x86ed                           03D8             0x71        0x70                          addl     %eax, %ebx                0x1                              
0x86ef                           035C2460         0x71                                      addl     0x60(%esp), %ebx          0x2                              
0x86f3                           6A08             0x71                                      pushl    $0x8                      0x3                              
0x86f5                           52               0x71                                      pushl    %edx                      0x3                              
0x86f6                           51               0x71                                      pushl    %ecx                      0x3                              
0x86f7                           57               0x71                                      pushl    %edi                      0x3                              
0x86f8                           55               0x71                                      pushl    %ebp                      0x3                              
0x86f9                           53               0x71                                      pushl    %ebx                      0x3                              
0x86fa                           E8172D0000       0x71        0x6a                          call     dist2                     0x4                              0x3
0x86ff  field_ME+239:            8BD8             0x71        0x6e                          movl     %eax, %ebx                0x1                              
0x8701                           83C418           0x72        0x70                          addl     $0x18, %esp               0x1                              
0x8704                           8B9424F4000000   0x72        0x6a                          movl     0xf4(%esp), %edx          0x1                              
0x870b                           85D2             0x72        0x6e                          testl    %edx, %edx                0x1                              
0x870d                           7406             0x72        0x70                          je       field_ME+24f              0x1                              0x3
0x870f  field_ME+249:            8B542464         0x72        0x6a                          movl     0x64(%esp), %edx          0x1                              
0x8713                           EB04             0x72        0x6e                          jmp      field_ME+253              0x1                              0x3
0x8715  field_ME+24f:            8B542474         0x72        0x70                          movl     0x74(%esp), %edx          0x1                              
0x8719  field_ME+253:            8B8C2404010000   0x72                                      movl     0x104(%esp), %ecx         0x1                              
0x8720                           89742478         0x71        0x6a                          movl     %esi, 0x78(%esp)          0x2                              
0x8724                           8BC1             0x71        0x70                          movl     %ecx, %eax                0x1                              
0x8726                           895C246C         0x71        0x6a                          movl     %ebx, 0x6c(%esp)          0x2                              
0x872a                           D1F8             0x71        0x6e                          sarl     0x1, %eax                 0x1                              
0x872c                           83E101           0x71        0x70                          andl     $0x1, %ecx                0x1                              
0x872f                           8B9C2400010000   0x71                                      movl     0x100(%esp), %ebx         0x1                              
0x8736                           6A08             0x71        0x6a                          pushl    $0x8                      0x3                              
0x8738                           8BF3             0x71        0x6e                          movl     %ebx, %esi                0x1                              
0x873a                           D1FE             0x71        0x70                          sarl     0x1, %esi                 0x1                              
0x873c                           0FAFF7           0x71        0x6a                          imull    %edi, %esi                0x1                              
0x873f                           83E301           0x71        0x6e                          andl     $0x1, %ebx                0x1                              
0x8742                           03C6             0x72        0x70                          addl     %esi, %eax                0x1                              
0x8744                           53               0x72                                      pushl    %ebx                      0x3                              
0x8745                           51               0x72        0x6a                          pushl    %ecx                      0x3                              
0x8746                           03C2             0x72        0x6e                          addl     %edx, %eax                0x1                              
0x8748                           8D143F           0x72        0x70                          leal     (%edi, %edi, 1), %edx     0x1                              
0x874b                           57               0x72        0x6a                          pushl    %edi                      0x3                              
0x874c                           03D2             0x72        0x6e                          addl     %edx, %edx                0x1                              
0x874e                           03D2             0x72        0x70                          addl     %edx, %edx                0x1                              
0x8750                           03D5             0x72                                      addl     %ebp, %edx                0x1                              
0x8752                           52               0x72                                      pushl    %edx                      0x3                              
0x8753                           50               0x72        0x6a                          pushl    %eax                      0x3                              
0x8754                           8B9C2484000000   0x72        0x6e                          movl     0x84(%esp), %ebx          0x1                              
0x875b                           8BB42490000000   0x72        0x70                          movl     0x90(%esp), %esi          0x1                              
0x8762                           E8AF2C0000       0x71        0x6a                          call     dist2                     0x4                              0x3
0x8767  field_ME+2a1:            83C418           0x71        0x6e                          addl     $0x18, %esp               0x1                              
0x876a                           03D8             0x71        0x70                          addl     %eax, %ebx                0x1                              
0x876c                           EB61             0x71        0x6a                          jmp      field_ME+309              0x1                              0x3
0x876e  field_ME+2a8:            8B84246C010000   0x71        0x6e                          movl     0x16c(%esp), %eax         0x1                              
0x8775                           8B9424FC000000   0x71        0x70                          movl     0xfc(%esp), %edx          0x1                              
0x877c                           C7400401000000   0x71        0x6a                          movl     $0x1, 0x4(%eax)           0x2                              
0x8783                           85D2             0x72        0x6e                          testl    %edx, %edx                0x1                              
0x8785                           740A             0x72        0x70                          je       field_ME+2cb              0x1                              0x3
0x8787  field_ME+2c1:            8B442464         0x72                                      movl     0x64(%esp), %eax          0x1                              
0x878b                           89442460         0x72        0x6a                          movl     %eax, 0x60(%esp)          0x2                              
0x878f                           EB08             0x72        0x6e                          jmp      field_ME+2d3              0x1                              0x3
0x8791  field_ME+2cb:            8B442474         0x72        0x70                          movl     0x74(%esp), %eax          0x1                              
0x8795                           89442460         0x72        0x6a                          movl     %eax, 0x60(%esp)          0x2                              
0x8799  field_ME+2d3:            8B8C2414010000   0x72        0x6e                          movl     0x114(%esp), %ecx         0x1                              
0x87a0                           8B942410010000   0x71        0x70                          movl     0x110(%esp), %edx         0x1                              
0x87a7                           8BD9             0x71        0x6a                          movl     %ecx, %ebx                0x1                              
0x87a9                           D1FB             0x71        0x6e                          sarl     0x1, %ebx                 0x1                              
0x87ab                           8BC2             0x71        0x70                          movl     %edx, %eax                0x1                              
0x87ad                           D1F8             0x71        0x6a                          sarl     0x1, %eax                 0x1                              
0x87af                           0FAFC7           0x71        0x6e                          imull    %edi, %eax                0x1                              
0x87b2                           83E101           0x71        0x70                          andl     $0x1, %ecx                0x1                              
0x87b5                           83E201           0x71        0x6a                          andl     $0x1, %edx                0x1                              
0x87b8                           03D8             0x71        0x70                          addl     %eax, %ebx                0x1                              
0x87ba                           035C2460         0x71                                      addl     0x60(%esp), %ebx          0x2                              
0x87be                           6A10             0x71                                      pushl    $0x10                     0x3                              
0x87c0                           52               0x72                                      pushl    %edx                      0x3                              
0x87c1                           51               0x72                                      pushl    %ecx                      0x3                              
0x87c2                           57               0x72                                      pushl    %edi                      0x3                              
0x87c3                           55               0x72                                      pushl    %ebp                      0x3                              
0x87c4                           53               0x72                                      pushl    %ebx                      0x3                              
0x87c5                           E84C2C0000       0x72        0x6a                          call     dist2                     0x4                              0x3
0x87ca  field_ME+304:            8BD8             0x72        0x6e                          movl     %eax, %ebx                0x1                              
0x87cc                           83C418           0x72        0x70                          addl     $0x18, %esp               0x1                              
0x87cf  field_ME+309:            8B542470         0x72        0x6a                          movl     0x70(%esp), %edx          0x1                              
0x87d3                           3BDA             0x72        0x6e                          cmpl     %edx, %ebx                0x1                              
0x87d5                           7E1A             0x72        0x70                          jle      field_ME+32b              0x1                              0x3
0x87d7  field_ME+311:            81FB00090000     0x72        0x6a                          cmpl     $0x900, %ebx              0x1                              
0x87dd                           7C12             0x72        0x70                          jnge     field_ME+32b              0x1                              0x3
0x87df  field_ME+319:            8B84246C010000   0x72                                      movl     0x16c(%esp), %eax         0x1                              
0x87e6                           C70001000000     0x71        0x6a                          movl     $0x1, (%eax)              0x2                              
0x87ec                           E9CE0B0000       0x71        0x6e                          jmp      field_ME+ef9              0x1                              0x3
0x87f1  field_ME+32b:            8B942474010000   0x71        0x70                          movl     0x174(%esp), %edx         0x1                              
0x87f8                           85D2             0x71        0x6a                          testl    %edx, %edx                0x1                              
0x87fa                           0F8586000000     0x71        0x70                          jnz      field_ME+3c0              0x1                              0x3
0x8800  field_ME+33a:            8B159C930C08     0x72        0x6a                          movl     0x80c939c, %edx           0x1                              
0x8806                           83FA02           0x72        0x6e                          cmpl     $0x2, %edx                0x1                              
0x8809                           0F84FC0B0000     0x72        0x70                          je       field_ME+f45              0x1                              0x3
0x880f  field_ME+349:            03B42454010000   0x72                                      addl     0x154(%esp), %esi         0x2                              
0x8816                           03742474         0x72                                      addl     0x74(%esp), %esi          0x2                              
0x881a                           6A10             0x72        0x6a                          pushl    $0x10                     0x3                              
0x881c                           33D2             0x72        0x70                          xorl     %edx, %edx                0x1                              
0x881e                           52               0x72                                      pushl    %edx                      0x3                              
0x881f                           52               0x72                                      pushl    %edx                      0x3                              
0x8820                           57               0x71                                      pushl    %edi                      0x3                              
0x8821                           55               0x71                                      pushl    %ebp                      0x3                              
0x8822                           56               0x71                                      pushl    %esi                      0x3                              
0x8823                           E8EE2B0000       0x71                                      call     dist2                     0x4                              0x3
0x8828  field_ME+362:            89842488000000   0x71        0x6a                          movl     %eax, 0x88(%esp)          0x2                              
0x882f                           83C418           0x71        0x6e                          addl     $0x18, %esp               0x1                              
0x8832                           8BD0             0x71        0x70                          movl     %eax, %edx                0x1                              
0x8834                           8D0C12           0x71        0x6a                          leal     (%edx, %edx, 1), %ecx     0x1                              
0x8837                           03C9             0x71        0x6e                          addl     %ecx, %ecx                0x1                              
0x8839                           8D2C1B           0x71        0x70                          leal     (%ebx, %ebx, 1), %ebp     0x1                              
0x883c                           03ED             0x71        0x6a                          addl     %ebp, %ebp                0x1                              
0x883e                           03EB             0x71        0x6e                          addl     %ebx, %ebp                0x1                              
0x8840                           3BCD             0x72        0x70                          cmpl     %ebp, %ecx                0x1                              
0x8842                           7E08             0x72                                      jle      field_ME+386              0x1                              0x3
0x8844  field_ME+37e:            81FA00090000     0x72        0x6a                          cmpl     $0x900, %edx              0x1                              
0x884a                           7D3A             0x72        0x70                          jge      field_ME+3c0              0x1                              0x3
0x884c  field_ME+386:            8B94246C010000   0x72                                      movl     0x16c(%esp), %edx         0x1                              
0x8853                           C7420401000000   0x72        0x6a                          movl     $0x1, 0x4(%edx)           0x2                              
0x885a                           33C0             0x72        0x70                          xorl     %eax, %eax                0x1                              
0x885c                           8902             0x72                                      movl     %eax, (%edx)              0x2                              
0x885e                           894218           0x72                                      movl     %eax, 0x18(%edx)          0x2                              
0x8861                           89421C           0x71        0x6a                          movl     %eax, 0x1c(%edx)          0x2                              
0x8864                           8B0D9C930C08     0x71        0x6e                          movl     0x80c939c, %ecx           0x1                              
0x886a                           83F902           0x71        0x70                          cmpl     $0x2, %ecx                0x1                              
0x886d                           0F84880B0000     0x71                                      je       field_ME+f35              0x1                              0x3
0x8873  field_ME+3ad:            8B84246C010000   0x71                                      movl     0x16c(%esp), %eax         0x1                              
0x887a                           C7403800000000   0x71        0x6a                          movl     $0x0, 0x38(%eax)          0x2                              
0x8881                           E9390B0000       0x72        0x6e                          jmp      field_ME+ef9              0x1                              0x3
0x8886  field_ME+3c0:            8B84246C010000   0x72        0x70                          movl     0x16c(%esp), %eax         0x1                              
0x888d                           C70008000000     0x72        0x6a                          movl     $0x8, (%eax)              0x2                              
0x8893                           8B4004           0x72        0x6e                          movl     0x4(%eax), %eax           0x1                              
0x8896                           83F801           0x72        0x70                          cmpl     $0x1, %eax                0x1                              
0x8899                           895C2470         0x72        0x6a                          movl     %ebx, 0x70(%esp)          0x2                              
0x889d                           0F84C10B0000     0x72        0x70                          je       field_ME+f9e              0x1                              0x3
0x88a3  field_ME+3dd:            83F803           0x71        0x6a                          cmpl     $0x3, %eax                0x1                              
0x88a6                           0F846C0B0000     0x71        0x70                          je       field_ME+f52              0x1                              0x3
0x88ac  field_ME+3e6:            8B942454010000   0x71        0x6a                          movl     0x154(%esp), %edx         0x1                              
0x88b3                           8B8C240C010000   0x71        0x6e                          movl     0x10c(%esp), %ecx         0x1                              
0x88ba                           8B84246C010000   0x71        0x70                          movl     0x16c(%esp), %eax         0x1                              
0x88c1                           8D3412           0x72        0x6a                          leal     (%edx, %edx, 1), %esi     0x1                              
0x88c4                           2BCE             0x72        0x6e                          subl     %esi, %ecx                0x1                              
0x88c6                           8B942458010000   0x72        0x70                          movl     0x158(%esp), %edx         0x1                              
0x88cd                           894818           0x72        0x6a                          movl     %ecx, 0x18(%eax)          0x2                              
0x88d0                           8BAC2408010000   0x72        0x6e                          movl     0x108(%esp), %ebp         0x1                              
0x88d7                           8D1C12           0x72        0x70                          leal     (%edx, %edx, 1), %ebx     0x1                              
0x88da                           2BEB             0x72                                      subl     %ebx, %ebp                0x1                              
0x88dc                           89681C           0x72        0x6a                          movl     %ebp, 0x1c(%eax)          0x2                              
0x88df                           8BBC2404010000   0x72        0x6e                          movl     0x104(%esp), %edi         0x1                              
0x88e6                           2BFE             0x71        0x70                          subl     %esi, %edi                0x1                              
0x88e8                           897828           0x71        0x6a                          movl     %edi, 0x28(%eax)          0x2                              
0x88eb                           8B8C2400010000   0x71        0x6e                          movl     0x100(%esp), %ecx         0x1                              
0x88f2                           8D541210         0x71        0x70                          leal     0x10(%edx, %edx, 1), %edx 0x1                              
0x88f6                           2BCA             0x71                                      subl     %edx, %ecx                0x1                              
0x88f8                           89482C           0x71        0x6a                          movl     %ecx, 0x2c(%eax)          0x2                              
0x88fb                           8B9424F8000000   0x71        0x70                          movl     0xf8(%esp), %edx          0x1                              
0x8902                           895038           0x72        0x6a                          movl     %edx, 0x38(%eax)          0x2                              
0x8905                           8B9424F4000000   0x72        0x70                          movl     0xf4(%esp), %edx          0x1                              
0x890c                           895040           0x72        0x6a                          movl     %edx, 0x40(%eax)          0x2                              
0x890f                           E9AB0A0000       0x72        0x6e                          jmp      field_ME+ef9              0x1                              0x3
0x8914  field_ME+44e:            8B1598930C08     0x72        0x70                          movl     0x80c9398, %edx           0x1                              
0x891a                           8B442474         0x72        0x6a                          movl     0x74(%esp), %eax          0x1                              
0x891e                           8B8C2454010000   0x72        0x6e                          movl     0x154(%esp), %ecx         0x1                              
0x8925                           8BB4245C010000   0x71        0x70                          movl     0x15c(%esp), %esi         0x1                              
0x892c                           891C24           0x71                                      movl     %ebx, (%esp)              0x2                              
0x892f                           C744242400000000 0x71                                      movl     $0x0, 0x24(%esp)          0x2                              
0x8937                           89442404         0x71        0x6a                          movl     %eax, 0x4(%esp)           0x2                              
0x893b                           03DA             0x71        0x70                          addl     %edx, %ebx                0x1                              
0x893d                           895C2408         0x71        0x6a                          movl     %ebx, 0x8(%esp)           0x2                              
0x8941                           8B9C2458010000   0x72        0x70                          movl     0x158(%esp), %ebx         0x1                              
0x8948                           896C2410         0x72        0x6a                          movl     %ebp, 0x10(%esp)          0x2                              
0x894c                           03D0             0x72        0x6e                          addl     %eax, %edx                0x1                              
0x894e                           8B842460010000   0x72        0x70                          movl     0x160(%esp), %eax         0x1                              
0x8955                           8954240C         0x72                                      movl     %edx, 0xc(%esp)           0x2                              
0x8959                           894C2414         0x72                                      movl     %ecx, 0x14(%esp)          0x2                              
0x895d                           895C2418         0x72                                      movl     %ebx, 0x18(%esp)          0x2                              
0x8961                           8974241C         0x71                                      movl     %esi, 0x1c(%esp)          0x2                              
0x8965                           89442420         0x71        0x6a                          movl     %eax, 0x20(%esp)          0x2                              
0x8969                           8D8424BC000000   0x71        0x70                          leal     0xbc(%esp), %eax          0x1                              
0x8970                           89442428         0x71        0x6a                          movl     %eax, 0x28(%esp)          0x2                              
0x8974                           8D8424B8000000   0x71        0x70                          leal     0xb8(%esp), %eax          0x1                              
0x897b                           8944242C         0x71        0x6a                          movl     %eax, 0x2c(%esp)          0x2                              
0x897f                           8D8424B4000000   0x71        0x70                          leal     0xb4(%esp), %eax          0x1                              
0x8986                           89442430         0x72        0x6a                          movl     %eax, 0x30(%esp)          0x2                              
0x898a                           8D8424B0000000   0x72        0x70                          leal     0xb0(%esp), %eax          0x1                              
0x8991                           89442434         0x72        0x6a                          movl     %eax, 0x34(%esp)          0x2                              
0x8995                           8D8424AC000000   0x72        0x70                          leal     0xac(%esp), %eax          0x1                              
0x899c                           89442438         0x72        0x6a                          movl     %eax, 0x38(%esp)          0x2                              
0x89a0                           8D8424A8000000   0x71        0x70                          leal     0xa8(%esp), %eax          0x1                              
0x89a7                           8944243C         0x71        0x6a                          movl     %eax, 0x3c(%esp)          0x2                              
0x89ab                           8D8424A4000000   0x71        0x70                          leal     0xa4(%esp), %eax          0x1                              
0x89b2                           89442440         0x71        0x6a                          movl     %eax, 0x40(%esp)          0x2                              
0x89b6                           8D8424A0000000   0x71        0x70                          leal     0xa0(%esp), %eax          0x1                              
0x89bd                           89442444         0x71        0x6a                          movl     %eax, 0x44(%esp)          0x2                              
0x89c1                           8D84249C000000   0x72        0x70                          leal     0x9c(%esp), %eax          0x1                              
0x89c8                           89442448         0x72        0x6a                          movl     %eax, 0x48(%esp)          0x2                              
0x89cc                           8D842498000000   0x72        0x70                          leal     0x98(%esp), %eax          0x1                              
0x89d3                           8944244C         0x72        0x6a                          movl     %eax, 0x4c(%esp)          0x2                              
0x89d7                           8D842494000000   0x72        0x70                          leal     0x94(%esp), %eax          0x1                              
0x89de                           89442450         0x72        0x6a                          movl     %eax, 0x50(%esp)          0x2                              
0x89e2                           8D842490000000   0x71        0x70                          leal     0x90(%esp), %eax          0x1                              
0x89e9                           89442454         0x71        0x6a                          movl     %eax, 0x54(%esp)          0x2                              
0x89ed                           8D84248C000000   0x71        0x70                          leal     0x8c(%esp), %eax          0x1                              
0x89f4                           89442458         0x71        0x6a                          movl     %eax, 0x58(%esp)          0x2                              
0x89f8                           8D842488000000   0x71        0x70                          leal     0x88(%esp), %eax          0x1                              
0x89ff                           8944245C         0x71                                      movl     %eax, 0x5c(%esp)          0x2                              
0x8a03                           E87A0E0000       0x72        0x6a                          call     field_estimate            0x4                              0x3
0x8a08  field_ME+542:            8B1D98930C08     0x72        0x6e                          movl     0x80c9398, %ebx           0x1                              
0x8a0e                           8B842440010000   0x72        0x70                          movl     0x140(%esp), %eax         0x1                              
0x8a15                           8B8C2448010000   0x72        0x6a                          movl     0x148(%esp), %ecx         0x1                              
0x8a1c                           8BB42454010000   0x72        0x6e                          movl     0x154(%esp), %esi         0x1                              
0x8a23                           8D1418           0x71        0x70                          leal     (%eax, %ebx, 1), %edx     0x1                              
0x8a26                           03D9             0x71                                      addl     %ecx, %ebx                0x1                              
0x8a28                           C744242400000000 0x71                                      movl     $0x0, 0x24(%esp)          0x2                              
0x8a30                           890424           0x71        0x6a                          movl     %eax, (%esp)              0x2                              
0x8a33                           8B842458010000   0x71        0x70                          movl     0x158(%esp), %eax         0x1                              
0x8a3a                           894C2404         0x71                                      movl     %ecx, 0x4(%esp)           0x2                              
0x8a3e                           89542408         0x71                                      movl     %edx, 0x8(%esp)           0x2                              
0x8a42                           895C240C         0x72                                      movl     %ebx, 0xc(%esp)           0x2                              
0x8a46                           896C2410         0x72                                      movl     %ebp, 0x10(%esp)          0x2                              
0x8a4a                           89742414         0x72                                      movl     %esi, 0x14(%esp)          0x2                              
0x8a4e                           89442418         0x72        0x6a                          movl     %eax, 0x18(%esp)          0x2                              
0x8a52                           8B842464010000   0x72        0x70                          movl     0x164(%esp), %eax         0x1                              
0x8a59                           8944241C         0x72        0x6a                          movl     %eax, 0x1c(%esp)          0x2                              
0x8a5d                           8B842468010000   0x72        0x70                          movl     0x168(%esp), %eax         0x1                              
0x8a64                           89442420         0x71        0x6a                          movl     %eax, 0x20(%esp)          0x2                              
0x8a68                           8D8424E8000000   0x71        0x70                          leal     0xe8(%esp), %eax          0x1                              
0x8a6f                           89442428         0x71        0x6a                          movl     %eax, 0x28(%esp)          0x2                              
0x8a73                           8D8424E4000000   0x71        0x70                          leal     0xe4(%esp), %eax          0x1                              
0x8a7a                           8944242C         0x71        0x6a                          movl     %eax, 0x2c(%esp)          0x2                              
0x8a7e                           8D8424E0000000   0x71        0x70                          leal     0xe0(%esp), %eax          0x1                              
0x8a85                           89442430         0x72        0x6a                          movl     %eax, 0x30(%esp)          0x2                              
0x8a89                           8D8424DC000000   0x72        0x70                          leal     0xdc(%esp), %eax          0x1                              
0x8a90                           89442434         0x72        0x6a                          movl     %eax, 0x34(%esp)          0x2                              
0x8a94                           8D8424D8000000   0x72        0x70                          leal     0xd8(%esp), %eax          0x1                              
0x8a9b                           89442438         0x72        0x6a                          movl     %eax, 0x38(%esp)          0x2                              
0x8a9f                           8D8424D4000000   0x72        0x70                          leal     0xd4(%esp), %eax          0x1                              
0x8aa6                           8944243C         0x71        0x6a                          movl     %eax, 0x3c(%esp)          0x2                              
0x8aaa                           8D8424D0000000   0x71        0x70                          leal     0xd0(%esp), %eax          0x1                              
0x8ab1                           89442440         0x71        0x6a                          movl     %eax, 0x40(%esp)          0x2                              
0x8ab5                           8D8424CC000000   0x71        0x70                          leal     0xcc(%esp), %eax          0x1                              
0x8abc                           89442444         0x71        0x6a                          movl     %eax, 0x44(%esp)          0x2                              
0x8ac0                           8D8424C8000000   0x72        0x70                          leal     0xc8(%esp), %eax          0x1                              
0x8ac7                           89442448         0x72        0x6a                          movl     %eax, 0x48(%esp)          0x2                              
0x8acb                           8D8424C4000000   0x72        0x70                          leal     0xc4(%esp), %eax          0x1                              
0x8ad2                           8944244C         0x72        0x6a                          movl     %eax, 0x4c(%esp)          0x2                              
0x8ad6                           8D8424C0000000   0x72        0x70                          leal     0xc0(%esp), %eax          0x1                              
0x8add                           89442450         0x72        0x6a                          movl     %eax, 0x50(%esp)          0x2                              
0x8ae1                           8D842490000000   0x71        0x70                          leal     0x90(%esp), %eax          0x1                              
0x8ae8                           89442454         0x71        0x6a                          movl     %eax, 0x54(%esp)          0x2                              
0x8aec                           8D84248C000000   0x71        0x70                          leal     0x8c(%esp), %eax          0x1                              
0x8af3                           89442458         0x71        0x6a                          movl     %eax, 0x58(%esp)          0x2                              
0x8af7                           8D842488000000   0x71        0x70                          leal     0x88(%esp), %eax          0x1                              
0x8afe                           8944245C         0x71                                      movl     %eax, 0x5c(%esp)          0x2                              
0x8b02                           E87B0D0000       0x72        0x6a                          call     field_estimate            0x4                              0x3
0x8b07  field_ME+641:            8B84249C000000   0x72        0x6e                          movl     0x9c(%esp), %eax          0x1                              
0x8b0e                           85C0             0x72        0x70                          testl    %eax, %eax                0x1                              
0x8b10                           740B             0x72                                      je       field_ME+657              0x1                              0x3
0x8b12  field_ME+64c:            A198930C08       0x72                                      movl     0x80c9398, %eax           0x1                              
0x8b17                           8944246C         0x72        0x6a                          movl     %eax, 0x6c(%esp)          0x2                              
0x8b1b                           EB06             0x72        0x6e                          jmp      field_ME+65d              0x1                              0x3
0x8b1d  field_ME+657:            33C0             0x72        0x70                          xorl     %eax, %eax                0x1                              
0x8b1f                           8944246C         0x72        0x6a                          movl     %eax, 0x6c(%esp)          0x2                              
0x8b23  field_ME+65d:            8B8424C8000000   0x71        0x6e                          movl     0xc8(%esp), %eax          0x1                              
0x8b2a                           85C0             0x71        0x70                          testl    %eax, %eax                0x1                              
0x8b2c                           740B             0x71                                      je       field_ME+673              0x1                              0x3
0x8b2e  field_ME+668:            A198930C08       0x71                                      movl     0x80c9398, %eax           0x1                              
0x8b33                           89442468         0x71        0x6a                          movl     %eax, 0x68(%esp)          0x2                              
0x8b37                           EB06             0x71        0x6e                          jmp      field_ME+679              0x1                              0x3
0x8b39  field_ME+673:            33C0             0x71        0x70                          xorl     %eax, %eax                0x1                              
0x8b3b                           89442468         0x71        0x6a                          movl     %eax, 0x68(%esp)          0x2                              
0x8b3f  field_ME+679:            8B8C24BC000000   0x71        0x70                          movl     0xbc(%esp), %ecx          0x1                              
0x8b46                           896C247C         0x72        0x6a                          movl     %ebp, 0x7c(%esp)          0x2                              
0x8b4a                           8BAC24B8000000   0x72        0x6e                          movl     0xb8(%esp), %ebp          0x1                              
0x8b51                           8BD1             0x72        0x70                          movl     %ecx, %edx                0x1                              
0x8b53                           D1FA             0x72                                      sarl     0x1, %edx                 0x1                              
0x8b55                           03542474         0x72        0x6a                          addl     0x74(%esp), %edx          0x2                              
0x8b59                           83E101           0x72        0x6e                          andl     $0x1, %ecx                0x1                              
0x8b5c                           8BDD             0x72        0x70                          movl     %ebp, %ebx                0x1                              
0x8b5e                           D1FB             0x72        0x6a                          sarl     0x1, %ebx                 0x1                              
0x8b60                           0FAFDF           0x71        0x70                          imull    %edi, %ebx                0x1                              
0x8b63                           894C2478         0x71        0x6a                          movl     %ecx, 0x78(%esp)          0x2                              
0x8b67                           8B8C24E4000000   0x71        0x6e                          movl     0xe4(%esp), %ecx          0x1                              
0x8b6e                           03D3             0x71        0x70                          addl     %ebx, %edx                0x1                              
0x8b70                           0354246C         0x71        0x6a                          addl     0x6c(%esp), %edx          0x2                              
0x8b74                           8B9C24E8000000   0x71        0x6e                          movl     0xe8(%esp), %ebx          0x1                              
0x8b7b                           83E501           0x71        0x70                          andl     $0x1, %ebp                0x1                              
0x8b7e                           8BC3             0x71        0x6a                          movl     %ebx, %eax                0x1                              
0x8b80                           D1F8             0x72        0x6e                          sarl     0x1, %eax                 0x1                              
0x8b82                           83E301           0x72        0x70                          andl     $0x1, %ebx                0x1                              
0x8b85                           03842448010000   0x72        0x6a                          addl     0x148(%esp), %eax         0x2                              
0x8b8c                           8BF1             0x72        0x6e                          movl     %ecx, %esi                0x1                              
0x8b8e                           D1FE             0x72        0x70                          sarl     0x1, %esi                 0x1                              
0x8b90                           0FAFF7           0x72        0x6a                          imull    %edi, %esi                0x1                              
0x8b93                           83E101           0x72        0x6e                          andl     $0x1, %ecx                0x1                              
0x8b96                           03C6             0x72        0x70                          addl     %esi, %eax                0x1                              
0x8b98                           03442468         0x72                                      addl     0x68(%esp), %eax          0x2                              
0x8b9c                           6A10             0x72                                      pushl    $0x10                     0x3                              
0x8b9e                           51               0x72                                      pushl    %ecx                      0x3                              
0x8b9f                           53               0x72                                      pushl    %ebx                      0x3                              
0x8ba0                           55               0x71        0x6a                          pushl    %ebp                      0x3                              
0x8ba1                           8B8C2488000000   0x71        0x70                          movl     0x88(%esp), %ecx          0x1                              
0x8ba8                           51               0x71                                      pushl    %ecx                      0x3                              
0x8ba9                           57               0x71        0x6a                          pushl    %edi                      0x3                              
0x8baa                           8BAC2494000000   0x71        0x70                          movl     0x94(%esp), %ebp          0x1                              
0x8bb1                           55               0x71                                      pushl    %ebp                      0x3                              
0x8bb2                           50               0x71                                      pushl    %eax                      0x3                              
0x8bb3                           52               0x71                                      pushl    %edx                      0x3                              
0x8bb4                           E8772F0000       0x71                                      call     bdist1                    0x4                              0x3
0x8bb9  field_ME+6f3:            89842488000000   0x71        0x6a                          movl     %eax, 0x88(%esp)          0x2                              
0x8bc0                           83C424           0x72        0x6e                          addl     $0x24, %esp               0x1                              
0x8bc3                           8B842498000000   0x72        0x70                          movl     0x98(%esp), %eax          0x1                              
0x8bca                           85C0             0x72        0x6a                          testl    %eax, %eax                0x1                              
0x8bcc                           740B             0x72        0x70                          je       field_ME+713              0x1                              0x3
0x8bce  field_ME+708:            A198930C08       0x72                                      movl     0x80c9398, %eax           0x1                              
0x8bd3                           8944246C         0x72        0x6a                          movl     %eax, 0x6c(%esp)          0x2                              
0x8bd7                           EB06             0x72        0x6e                          jmp      field_ME+719              0x1                              0x3
0x8bd9  field_ME+713:            33C0             0x72        0x70                          xorl     %eax, %eax                0x1                              
0x8bdb                           8944246C         0x72        0x6a                          movl     %eax, 0x6c(%esp)          0x2                              
0x8bdf  field_ME+719:            8B8424C4000000   0x72        0x6e                          movl     0xc4(%esp), %eax          0x1                              
0x8be6                           85C0             0x71        0x70                          testl    %eax, %eax                0x1                              
0x8be8                           740B             0x71                                      je       field_ME+72f              0x1                              0x3
0x8bea  field_ME+724:            A198930C08       0x71                                      movl     0x80c9398, %eax           0x1                              
0x8bef                           89442468         0x71        0x6a                          movl     %eax, 0x68(%esp)          0x2                              
0x8bf3                           EB06             0x71        0x6e                          jmp      field_ME+735              0x1                              0x3
0x8bf5  field_ME+72f:            33C0             0x71        0x70                          xorl     %eax, %eax                0x1                              
0x8bf7                           89442468         0x71        0x6a                          movl     %eax, 0x68(%esp)          0x2                              
0x8bfb  field_ME+735:            8B8C24B4000000   0x71        0x70                          movl     0xb4(%esp), %ecx          0x1                              
0x8c02                           896C247C         0x72        0x6a                          movl     %ebp, 0x7c(%esp)          0x2                              
0x8c06                           8BAC24B0000000   0x72        0x6e                          movl     0xb0(%esp), %ebp          0x1                              
0x8c0d                           8BD1             0x72        0x70                          movl     %ecx, %edx                0x1                              
0x8c0f                           D1FA             0x72                                      sarl     0x1, %edx                 0x1                              
0x8c11                           03542474         0x72        0x6a                          addl     0x74(%esp), %edx          0x2                              
0x8c15                           83E101           0x72        0x6e                          andl     $0x1, %ecx                0x1                              
0x8c18                           8BDD             0x72        0x70                          movl     %ebp, %ebx                0x1                              
0x8c1a                           D1FB             0x72        0x6a                          sarl     0x1, %ebx                 0x1                              
0x8c1c                           0FAFDF           0x72        0x70                          imull    %edi, %ebx                0x1                              
0x8c1f                           894C2478         0x72        0x6a                          movl     %ecx, 0x78(%esp)          0x2                              
0x8c23                           8B8C24DC000000   0x71        0x6e                          movl     0xdc(%esp), %ecx          0x1                              
0x8c2a                           03D3             0x71        0x70                          addl     %ebx, %edx                0x1                              
0x8c2c                           0354246C         0x71        0x6a                          addl     0x6c(%esp), %edx          0x2                              
0x8c30                           8B9C24E0000000   0x71        0x6e                          movl     0xe0(%esp), %ebx          0x1                              
0x8c37                           83E501           0x71        0x70                          andl     $0x1, %ebp                0x1                              
0x8c3a                           8BC3             0x71        0x6a                          movl     %ebx, %eax                0x1                              
0x8c3c                           D1F8             0x71        0x6e                          sarl     0x1, %eax                 0x1                              
0x8c3e                           83E301           0x71        0x70                          andl     $0x1, %ebx                0x1                              
0x8c41                           03842448010000   0x72        0x6a                          addl     0x148(%esp), %eax         0x2                              
0x8c48                           8BF1             0x72        0x6e                          movl     %ecx, %esi                0x1                              
0x8c4a                           D1FE             0x72        0x70                          sarl     0x1, %esi                 0x1                              
0x8c4c                           0FAFF7           0x72        0x6a                          imull    %edi, %esi                0x1                              
0x8c4f                           83E101           0x72        0x6e                          andl     $0x1, %ecx                0x1                              
0x8c52                           03C6             0x72        0x70                          addl     %esi, %eax                0x1                              
0x8c54                           03442468         0x72                                      addl     0x68(%esp), %eax          0x2                              
0x8c58                           6A08             0x72                                      pushl    $0x8                      0x3                              
0x8c5a                           51               0x72                                      pushl    %ecx                      0x3                              
0x8c5b                           53               0x72                                      pushl    %ebx                      0x3                              
0x8c5c                           55               0x72        0x6a                          pushl    %ebp                      0x3                              
0x8c5d                           8B8C2488000000   0x72        0x70                          movl     0x88(%esp), %ecx          0x1                              
0x8c64                           51               0x71                                      pushl    %ecx                      0x3                              
0x8c65                           57               0x71        0x6a                          pushl    %edi                      0x3                              
0x8c66                           8BAC2494000000   0x71        0x70                          movl     0x94(%esp), %ebp          0x1                              
0x8c6d                           55               0x71                                      pushl    %ebp                      0x3                              
0x8c6e                           50               0x71                                      pushl    %eax                      0x3                              
0x8c6f                           52               0x71                                      pushl    %edx                      0x3                              
0x8c70                           E8BB2E0000       0x71                                      call     bdist1                    0x4                              0x3
0x8c75  field_ME+7af:            8984249C000000   0x71        0x6a                          movl     %eax, 0x9c(%esp)          0x2                              
0x8c7c                           83C424           0x71        0x6e                          addl     $0x24, %esp               0x1                              
0x8c7f                           8B842494000000   0x71        0x70                          movl     0x94(%esp), %eax          0x1                              
0x8c86                           85C0             0x72        0x6a                          testl    %eax, %eax                0x1                              
0x8c88                           740B             0x72        0x70                          je       field_ME+7cf              0x1                              0x3
0x8c8a  field_ME+7c4:            A198930C08       0x72                                      movl     0x80c9398, %eax           0x1                              
0x8c8f                           8944246C         0x72        0x6a                          movl     %eax, 0x6c(%esp)          0x2                              
0x8c93                           EB06             0x72        0x6e                          jmp      field_ME+7d5              0x1                              0x3
0x8c95  field_ME+7cf:            33C0             0x72        0x70                          xorl     %eax, %eax                0x1                              
0x8c97                           8944246C         0x72        0x6a                          movl     %eax, 0x6c(%esp)          0x2                              
0x8c9b  field_ME+7d5:            8B8424C0000000   0x72        0x6e                          movl     0xc0(%esp), %eax          0x1                              
0x8ca2                           85C0             0x71        0x70                          testl    %eax, %eax                0x1                              
0x8ca4                           740B             0x71                                      je       field_ME+7eb              0x1                              0x3
0x8ca6  field_ME+7e0:            A198930C08       0x71                                      movl     0x80c9398, %eax           0x1                              
0x8cab                           89442460         0x71        0x6a                          movl     %eax, 0x60(%esp)          0x2                              
0x8caf                           EB06             0x71        0x6e                          jmp      field_ME+7f1              0x1                              0x3
0x8cb1  field_ME+7eb:            33C0             0x71        0x70                          xorl     %eax, %eax                0x1                              
0x8cb3                           89442460         0x71        0x6a                          movl     %eax, 0x60(%esp)          0x2                              
0x8cb7  field_ME+7f1:            8B8424AC000000   0x71        0x6e                          movl     0xac(%esp), %eax          0x1                              
0x8cbe                           8B9424A8000000   0x71        0x70                          movl     0xa8(%esp), %edx          0x1                              
0x8cc5                           8B8C24D8000000   0x72        0x6a                          movl     0xd8(%esp), %ecx          0x1                              
0x8ccc                           8B9C24D4000000   0x72        0x6e                          movl     0xd4(%esp), %ebx          0x1                              
0x8cd3                           8BF0             0x72        0x70                          movl     %eax, %esi                0x1                              
0x8cd5                           D1FE             0x72                                      sarl     0x1, %esi                 0x1                              
0x8cd7                           03742474         0x72        0x6a                          addl     0x74(%esp), %esi          0x2                              
0x8cdb                           83E001           0x72        0x70                          andl     $0x1, %eax                0x1                              
0x8cde                           89842480000000   0x72        0x6a                          movl     %eax, 0x80(%esp)          0x2                              
0x8ce5                           8BC2             0x71        0x6e                          movl     %edx, %eax                0x1                              
0x8ce7                           D1F8             0x71        0x70                          sarl     0x1, %eax                 0x1                              
0x8ce9                           0FAFC7           0x71        0x6a                          imull    %edi, %eax                0x1                              
0x8cec                           83E201           0x71        0x70                          andl     $0x1, %edx                0x1                              
0x8cef                           89942484000000   0x71        0x6a                          movl     %edx, 0x84(%esp)          0x2                              
0x8cf6                           03F0             0x71        0x70                          addl     %eax, %esi                0x1                              
0x8cf8                           0374246C         0x71        0x6a                          addl     0x6c(%esp), %esi          0x2                              
0x8cfc                           8BD1             0x71        0x6e                          movl     %ecx, %edx                0x1                              
0x8cfe                           D1FA             0x71        0x70                          sarl     0x1, %edx                 0x1                              
0x8d00                           03942448010000   0x72        0x6a                          addl     0x148(%esp), %edx         0x2                              
0x8d07                           83E101           0x72        0x6e                          andl     $0x1, %ecx                0x1                              
0x8d0a                           8BC3             0x72        0x70                          movl     %ebx, %eax                0x1                              
0x8d0c                           D1F8             0x72        0x6a                          sarl     0x1, %eax                 0x1                              
0x8d0e                           0FAFC7           0x72        0x6e                          imull    %edi, %eax                0x1                              
0x8d11                           83E301           0x72        0x70                          andl     $0x1, %ebx                0x1                              
0x8d14                           03D0             0x72                                      addl     %eax, %edx                0x1                              
0x8d16                           03542460         0x72        0x6a                          addl     0x60(%esp), %edx          0x2                              
0x8d1a                           8D043F           0x72        0x6e                          leal     (%edi, %edi, 1), %eax     0x1                              
0x8d1d                           03C0             0x72        0x70                          addl     %eax, %eax                0x1                              
0x8d1f                           03C0             0x72        0x6a                          addl     %eax, %eax                0x1                              
0x8d21                           03C5             0x71        0x70                          addl     %ebp, %eax                0x1                              
0x8d23                           89442468         0x71                                      movl     %eax, 0x68(%esp)          0x2                              
0x8d27                           6A08             0x71                                      pushl    $0x8                      0x3                              
0x8d29                           53               0x71                                      pushl    %ebx                      0x3                              
0x8d2a                           51               0x71        0x6a                          pushl    %ecx                      0x3                              
0x8d2b                           8B8C2490000000   0x71        0x70                          movl     0x90(%esp), %ecx          0x1                              
0x8d32                           51               0x71        0x6a                          pushl    %ecx                      0x3                              
0x8d33                           8B8C2490000000   0x71        0x70                          movl     0x90(%esp), %ecx          0x1                              
0x8d3a                           51               0x71                                      pushl    %ecx                      0x3                              
0x8d3b                           57               0x71                                      pushl    %edi                      0x3                              
0x8d3c                           50               0x71                                      pushl    %eax                      0x3                              
0x8d3d                           52               0x71                                      pushl    %edx                      0x3                              
0x8d3e                           56               0x71                                      pushl    %esi                      0x3                              
0x8d3f                           E8EC2D0000       0x71        0x6a                          call     bdist1                    0x4                              0x3
0x8d44  field_ME+87e:            83C424           0x72        0x6e                          addl     $0x24, %esp               0x1                              
0x8d47                           8B542478         0x72        0x70                          movl     0x78(%esp), %edx          0x1                              
0x8d4b                           03D0             0x72        0x6a                          addl     %eax, %edx                0x1                              
0x8d4d                           8B442464         0x72        0x70                          movl     0x64(%esp), %eax          0x1                              
0x8d51                           89542478         0x72        0x6a                          movl     %edx, 0x78(%esp)          0x2                              
0x8d55                           3BC2             0x72        0x6e                          cmpl     %edx, %eax                0x1                              
0x8d57                           0F8D45010000     0x72        0x70                          jge      field_ME+9dc              0x1                              0x3
0x8d5d  field_ME+897:            8B9C24A4000000   0x72        0x6a                          movl     0xa4(%esp), %ebx          0x1                              
0x8d64                           3BC3             0x71        0x6e                          cmpl     %ebx, %eax                0x1                              
0x8d66                           0F8D1F010000     0x71        0x70                          jge      field_ME+9c5              0x1                              0x3
0x8d6c  field_ME+8a6:            8B8C24A0000000   0x71        0x6a                          movl     0xa0(%esp), %ecx          0x1                              
0x8d73                           3BC1             0x71        0x6e                          cmpl     %ecx, %eax                0x1                              
0x8d75                           0F8D00010000     0x71        0x70                          jge      field_ME+9b5              0x1                              0x3
0x8d7b  field_ME+8b5:            8B9424D0000000   0x71        0x6a                          movl     0xd0(%esp), %edx          0x1                              
0x8d82                           3BC2             0x72        0x6e                          cmpl     %edx, %eax                0x1                              
0x8d84                           0F8DE8000000     0x72        0x70                          jge      field_ME+9ac              0x1                              0x3
0x8d8a  field_ME+8c4:            8B8424CC000000   0x72        0x6a                          movl     0xcc(%esp), %eax          0x1                              
0x8d91                           8B742464         0x72        0x6e                          movl     0x64(%esp), %esi          0x1                              
0x8d95                           3BF0             0x72        0x70                          cmpl     %eax, %esi                0x1                              
0x8d97                           0F8D21010000     0x72                                      jge      field_ME+9f8              0x1                              0x3
0x8d9d  field_ME+8d7:            8B84246C010000   0x72                                      movl     0x16c(%esp), %eax         0x1                              
0x8da4                           C7000C000000     0x71        0x6a                          movl     $0xc, (%eax)              0x2                              
0x8daa                           8B94249C000000   0x71        0x70                          movl     0x9c(%esp), %edx          0x1                              
0x8db1                           C7400401000000   0x71        0x6a                          movl     $0x1, 0x4(%eax)           0x2                              
0x8db8                           85D2             0x71        0x6e                          testl    %edx, %edx                0x1                              
0x8dba                           740B             0x71        0x70                          je       field_ME+901              0x1                              0x3
0x8dbc  field_ME+8f6:            A198930C08       0x71                                      movl     0x80c9398, %eax           0x1                              
0x8dc1                           89442460         0x72        0x6a                          movl     %eax, 0x60(%esp)          0x2                              
0x8dc5                           EB06             0x72        0x6e                          jmp      field_ME+907              0x1                              0x3
0x8dc7  field_ME+901:            33C0             0x72        0x70                          xorl     %eax, %eax                0x1                              
0x8dc9                           89442460         0x72        0x6a                          movl     %eax, 0x60(%esp)          0x2                              
0x8dcd  field_ME+907:            8B8424C8000000   0x72        0x6e                          movl     0xc8(%esp), %eax          0x1                              
0x8dd4                           85C0             0x72        0x70                          testl    %eax, %eax                0x1                              
0x8dd6                           740B             0x72                                      je       field_ME+91d              0x1                              0x3
0x8dd8  field_ME+912:            A198930C08       0x72                                      movl     0x80c9398, %eax           0x1                              
0x8ddd                           89442464         0x72        0x6a                          movl     %eax, 0x64(%esp)          0x2                              
0x8de1                           EB06             0x71        0x6e                          jmp      field_ME+923              0x1                              0x3
0x8de3  field_ME+91d:            33C0             0x71        0x70                          xorl     %eax, %eax                0x1                              
0x8de5                           89442464         0x71        0x6a                          movl     %eax, 0x64(%esp)          0x2                              
0x8de9  field_ME+923:            8B4C2474         0x71        0x6e                          movl     0x74(%esp), %ecx          0x1                              
0x8ded                           8B9424B8000000   0x71        0x70                          movl     0xb8(%esp), %edx          0x1                              
0x8df4                           896C247C         0x71        0x6a                          movl     %ebp, 0x7c(%esp)          0x2                              
0x8df8                           8BAC24BC000000   0x71        0x6e                          movl     0xbc(%esp), %ebp          0x1                              
0x8dff                           8BDD             0x71        0x70                          movl     %ebp, %ebx                0x1                              
0x8e01                           D1FB             0x72        0x6a                          sarl     0x1, %ebx                 0x1                              
0x8e03                           03CB             0x72        0x6e                          addl     %ebx, %ecx                0x1                              
0x8e05                           83E501           0x72        0x70                          andl     $0x1, %ebp                0x1                              
0x8e08                           89AC2484000000   0x72        0x6a                          movl     %ebp, 0x84(%esp)          0x2                              
0x8e0f                           8BAC24E4000000   0x72        0x6e                          movl     0xe4(%esp), %ebp          0x1                              
0x8e16                           8BF2             0x72        0x70                          movl     %edx, %esi                0x1                              
0x8e18                           D1FE             0x72        0x6a                          sarl     0x1, %esi                 0x1                              
0x8e1a                           0FAFF7           0x72        0x6e                          imull    %edi, %esi                0x1                              
0x8e1d                           83E201           0x72        0x70                          andl     $0x1, %edx                0x1                              
0x8e20                           8BDD             0x71        0x6a                          movl     %ebp, %ebx                0x1                              
0x8e22                           03CE             0x71        0x70                          addl     %esi, %ecx                0x1                              
0x8e24                           034C2460         0x71        0x6a                          addl     0x60(%esp), %ecx          0x2                              
0x8e28                           8BB424E8000000   0x71        0x6e                          movl     0xe8(%esp), %esi          0x1                              
0x8e2f                           8BC6             0x71        0x70                          movl     %esi, %eax                0x1                              
0x8e31                           D1F8             0x71                                      sarl     0x1, %eax                 0x1                              
0x8e33                           03842448010000   0x71        0x6a                          addl     0x148(%esp), %eax         0x2                              
0x8e3a                           83E601           0x71        0x6e                          andl     $0x1, %esi                0x1                              
0x8e3d                           D1FB             0x71        0x70                          sarl     0x1, %ebx                 0x1                              
0x8e3f                           0FAFDF           0x71        0x6a                          imull    %edi, %ebx                0x1                              
0x8e42                           83E501           0x72        0x6e                          andl     $0x1, %ebp                0x1                              
0x8e45                           03C3             0x72        0x70                          addl     %ebx, %eax                0x1                              
0x8e47                           03442464         0x72                                      addl     0x64(%esp), %eax          0x2                              
0x8e4b                           6A10             0x72                                      pushl    $0x10                     0x3                              
0x8e4d                           55               0x72                                      pushl    %ebp                      0x3                              
0x8e4e                           56               0x72                                      pushl    %esi                      0x3                              
0x8e4f                           52               0x72        0x6a                          pushl    %edx                      0x3                              
0x8e50                           8B942494000000   0x72        0x70                          movl     0x94(%esp), %edx          0x1                              
0x8e57                           52               0x72                                      pushl    %edx                      0x3                              
0x8e58                           57               0x72        0x6a                          pushl    %edi                      0x3                              
0x8e59                           8BBC2494000000   0x72        0x70                          movl     0x94(%esp), %edi          0x1                              
0x8e60                           57               0x71                                      pushl    %edi                      0x3                              
0x8e61                           50               0x71                                      pushl    %eax                      0x3                              
0x8e62                           51               0x71                                      pushl    %ecx                      0x3                              
0x8e63                           E89E2E0000       0x71        0x6a                          call     bdist2                    0x4                              0x3
0x8e68  field_ME+9a2:            8BD8             0x71        0x6e                          movl     %eax, %ebx                0x1                              
0x8e6a                           83C424           0x71        0x70                          addl     $0x24, %esp               0x1                              
0x8e6d                           E96C040000       0x71        0x6a                          jmp      field_ME+e18              0x1                              0x3
0x8e72  field_ME+9ac:            8B8424CC000000   0x71        0x6e                          movl     0xcc(%esp), %eax          0x1                              
0x8e79                           EB43             0x71        0x70                          jmp      field_ME+9f8              0x1                              0x3
0x8e7b  field_ME+9b5:            8B9424D0000000   0x71        0x6a                          movl     0xd0(%esp), %edx          0x1                              
0x8e82                           8B8424CC000000   0x72        0x6e                          movl     0xcc(%esp), %eax          0x1                              
0x8e89                           EB33             0x72        0x70                          jmp      field_ME+9f8              0x1                              0x3
0x8e8b  field_ME+9c5:            8B8C24A0000000   0x72        0x6a                          movl     0xa0(%esp), %ecx          0x1                              
0x8e92                           8B9424D0000000   0x72        0x6e                          movl     0xd0(%esp), %edx          0x1                              
0x8e99                           8B8424CC000000   0x72        0x70                          movl     0xcc(%esp), %eax          0x1                              
0x8ea0                           EB1C             0x71        0x6a                          jmp      field_ME+9f8              0x1                              0x3
0x8ea2  field_ME+9dc:            8B9C24A4000000   0x71        0x6e                          movl     0xa4(%esp), %ebx          0x1                              
0x8ea9                           8B8C24A0000000   0x71        0x70                          movl     0xa0(%esp), %ecx          0x1                              
0x8eb0                           8B9424D0000000   0x71        0x6a                          movl     0xd0(%esp), %edx          0x1                              
0x8eb7                           8B8424CC000000   0x71        0x6e                          movl     0xcc(%esp), %eax          0x1                              
0x8ebe  field_ME+9f8:            8B742478         0x71        0x70                          movl     0x78(%esp), %esi          0x1                              
0x8ec2                           3BF3             0x72        0x6a                          cmpl     %ebx, %esi                0x1                              
0x8ec4                           0F8DB3010000     0x72        0x70                          jge      field_ME+bb7              0x1                              0x3
0x8eca  field_ME+a04:            3BF1             0x72        0x6a                          cmpl     %ecx, %esi                0x1                              
0x8ecc                           0F8DAB010000     0x72        0x70                          jge      field_ME+bb7              0x1                              0x3
0x8ed2  field_ME+a0c:            3BF2             0x72        0x6a                          cmpl     %edx, %esi                0x1                              
0x8ed4                           0F8DA3010000     0x72        0x70                          jge      field_ME+bb7              0x1                              0x3
0x8eda  field_ME+a14:            3BF0             0x72        0x6a                          cmpl     %eax, %esi                0x1                              
0x8edc                           0F8D9B010000     0x72        0x70                          jge      field_ME+bb7              0x1                              0x3
0x8ee2  field_ME+a1c:            8B84246C010000   0x71                                      movl     0x16c(%esp), %eax         0x1                              
0x8ee9                           C7000C000000     0x71        0x6a                          movl     $0xc, (%eax)              0x2                              
0x8eef                           8B942498000000   0x71        0x70                          movl     0x98(%esp), %edx          0x1                              
0x8ef6                           C7400402000000   0x71        0x6a                          movl     $0x2, 0x4(%eax)           0x2                              
0x8efd                           85D2             0x71        0x6e                          testl    %edx, %edx                0x1                              
0x8eff                           740B             0x71        0x70                          je       field_ME+a46              0x1                              0x3
0x8f01  field_ME+a3b:            A198930C08       0x72                                      movl     0x80c9398, %eax           0x1                              
0x8f06                           89442464         0x72        0x6a                          movl     %eax, 0x64(%esp)          0x2                              
0x8f0a                           EB06             0x72        0x6e                          jmp      field_ME+a4c              0x1                              0x3
0x8f0c  field_ME+a46:            33C0             0x72        0x70                          xorl     %eax, %eax                0x1                              
0x8f0e                           89442464         0x72        0x6a                          movl     %eax, 0x64(%esp)          0x2                              
0x8f12  field_ME+a4c:            8B8424C4000000   0x72        0x6e                          movl     0xc4(%esp), %eax          0x1                              
0x8f19                           85C0             0x72        0x70                          testl    %eax, %eax                0x1                              
0x8f1b                           740B             0x72                                      je       field_ME+a62              0x1                              0x3
0x8f1d  field_ME+a57:            A198930C08       0x72                                      movl     0x80c9398, %eax           0x1                              
0x8f22                           89442460         0x71        0x6a                          movl     %eax, 0x60(%esp)          0x2                              
0x8f26                           EB06             0x71        0x6e                          jmp      field_ME+a68              0x1                              0x3
0x8f28  field_ME+a62:            33C0             0x71        0x70                          xorl     %eax, %eax                0x1                              
0x8f2a                           89442460         0x71        0x6a                          movl     %eax, 0x60(%esp)          0x2                              
0x8f2e  field_ME+a68:            8B9C24B4000000   0x71        0x6e                          movl     0xb4(%esp), %ebx          0x1                              
0x8f35                           8B9424B0000000   0x71        0x70                          movl     0xb0(%esp), %edx          0x1                              
0x8f3c                           896C247C         0x71        0x6a                          movl     %ebp, 0x7c(%esp)          0x2                              
0x8f40                           8BCB             0x72        0x6e                          movl     %ebx, %ecx                0x1                              
0x8f42                           D1F9             0x72        0x70                          sarl     0x1, %ecx                 0x1                              
0x8f44                           83E301           0x72                                      andl     $0x1, %ebx                0x1                              
0x8f47                           034C2474         0x72        0x6a                          addl     0x74(%esp), %ecx          0x2                              
0x8f4b                           8BEA             0x72        0x70                          movl     %edx, %ebp                0x1                              
0x8f4d                           899C2484000000   0x72        0x6a                          movl     %ebx, 0x84(%esp)          0x2                              
0x8f54                           D1FD             0x72        0x6e                          sarl     0x1, %ebp                 0x1                              
0x8f56                           0FAFEF           0x72        0x70                          imull    %edi, %ebp                0x1                              
0x8f59                           83E201           0x72        0x6a                          andl     $0x1, %edx                0x1                              
0x8f5c                           03CD             0x72        0x70                          addl     %ebp, %ecx                0x1                              
0x8f5e                           034C2464         0x72        0x6a                          addl     0x64(%esp), %ecx          0x2                              
0x8f62                           8BAC24E0000000   0x71        0x6e                          movl     0xe0(%esp), %ebp          0x1                              
0x8f69                           8BC5             0x71        0x70                          movl     %ebp, %eax                0x1                              
0x8f6b                           D1F8             0x71                                      sarl     0x1, %eax                 0x1                              
0x8f6d                           03842448010000   0x71        0x6a                          addl     0x148(%esp), %eax         0x2                              
0x8f74                           8B9C24DC000000   0x71        0x6e                          movl     0xdc(%esp), %ebx          0x1                              
0x8f7b                           83E501           0x71        0x70                          andl     $0x1, %ebp                0x1                              
0x8f7e                           8BF3             0x71        0x6a                          movl     %ebx, %esi                0x1                              
0x8f80                           D1FE             0x72        0x6e                          sarl     0x1, %esi                 0x1                              
0x8f82                           0FAFF7           0x72        0x70                          imull    %edi, %esi                0x1                              
0x8f85                           83E301           0x72        0x6a                          andl     $0x1, %ebx                0x1                              
0x8f88                           03C6             0x72        0x70                          addl     %esi, %eax                0x1                              
0x8f8a                           03442460         0x72                                      addl     0x60(%esp), %eax          0x2                              
0x8f8e                           6A08             0x72                                      pushl    $0x8                      0x3                              
0x8f90                           53               0x72                                      pushl    %ebx                      0x3                              
0x8f91                           55               0x72                                      pushl    %ebp                      0x3                              
0x8f92                           52               0x72        0x6a                          pushl    %edx                      0x3                              
0x8f93                           8B942494000000   0x72        0x70                          movl     0x94(%esp), %edx          0x1                              
0x8f9a                           52               0x72                                      pushl    %edx                      0x3                              
0x8f9b                           57               0x72        0x6a                          pushl    %edi                      0x3                              
0x8f9c                           8B942494000000   0x72        0x70                          movl     0x94(%esp), %edx          0x1                              
0x8fa3                           52               0x71                                      pushl    %edx                      0x3                              
0x8fa4                           50               0x71                                      pushl    %eax                      0x3                              
0x8fa5                           51               0x71                                      pushl    %ecx                      0x3                              
0x8fa6                           E85B2D0000       0x71        0x6a                          call     bdist2                    0x4                              0x3
0x8fab  field_ME+ae5:            8BD8             0x71        0x6e                          movl     %eax, %ebx                0x1                              
0x8fad                           83C424           0x71        0x70                          addl     $0x24, %esp               0x1                              
0x8fb0                           8B942494000000   0x71        0x6a                          movl     0x94(%esp), %edx          0x1                              
0x8fb7                           85D2             0x71        0x6e                          testl    %edx, %edx                0x1                              
0x8fb9                           740C             0x71        0x70                          je       field_ME+b01              0x1                              0x3
0x8fbb  field_ME+af5:            8B1598930C08     0x71                                      movl     0x80c9398, %edx           0x1                              
0x8fc1                           89542464         0x72        0x6a                          movl     %edx, 0x64(%esp)          0x2                              
0x8fc5                           EB06             0x72        0x6e                          jmp      field_ME+b07              0x1                              0x3
0x8fc7  field_ME+b01:            33D2             0x72        0x70                          xorl     %edx, %edx                0x1                              
0x8fc9                           89542464         0x72        0x6a                          movl     %edx, 0x64(%esp)          0x2                              
0x8fcd  field_ME+b07:            8B9424C0000000   0x72        0x6e                          movl     0xc0(%esp), %edx          0x1                              
0x8fd4                           85D2             0x72        0x70                          testl    %edx, %edx                0x1                              
0x8fd6                           740C             0x72                                      je       field_ME+b1e              0x1                              0x3
0x8fd8  field_ME+b12:            8B1598930C08     0x72                                      movl     0x80c9398, %edx           0x1                              
0x8fde                           89542460         0x72        0x6a                          movl     %edx, 0x60(%esp)          0x2                              
0x8fe2                           EB06             0x71        0x6e                          jmp      field_ME+b24              0x1                              0x3
0x8fe4  field_ME+b1e:            33D2             0x71        0x70                          xorl     %edx, %edx                0x1                              
0x8fe6                           89542460         0x71        0x6a                          movl     %edx, 0x60(%esp)          0x2                              
0x8fea  field_ME+b24:            8BAC24AC000000   0x71        0x6e                          movl     0xac(%esp), %ebp          0x1                              
0x8ff1                           8B4C2474         0x71        0x70                          movl     0x74(%esp), %ecx          0x1                              
0x8ff5                           8B9424A8000000   0x71                                      movl     0xa8(%esp), %edx          0x1                              
0x8ffc                           899C2484000000   0x71        0x6a                          movl     %ebx, 0x84(%esp)          0x2                              
0x9003                           8BDD             0x72        0x6e                          movl     %ebp, %ebx                0x1                              
0x9005                           D1FB             0x72        0x70                          sarl     0x1, %ebx                 0x1                              
0x9007                           03CB             0x72        0x6a                          addl     %ebx, %ecx                0x1                              
0x9009                           83E501           0x72        0x70                          andl     $0x1, %ebp                0x1                              
0x900c                           89AC2480000000   0x72        0x6a                          movl     %ebp, 0x80(%esp)          0x2                              
0x9013                           8BAC24D4000000   0x72        0x6e                          movl     0xd4(%esp), %ebp          0x1                              
0x901a                           8BF2             0x72        0x70                          movl     %edx, %esi                0x1                              
0x901c                           D1FE             0x72        0x6a                          sarl     0x1, %esi                 0x1                              
0x901e                           0FAFF7           0x72        0x6e                          imull    %edi, %esi                0x1                              
0x9021                           83E201           0x71        0x70                          andl     $0x1, %edx                0x1                              
0x9024                           8BDD             0x71        0x6a                          movl     %ebp, %ebx                0x1                              
0x9026                           03CE             0x71        0x70                          addl     %esi, %ecx                0x1                              
0x9028                           034C2464         0x71        0x6a                          addl     0x64(%esp), %ecx          0x2                              
0x902c                           8BB424D8000000   0x71        0x6e                          movl     0xd8(%esp), %esi          0x1                              
0x9033                           8BC6             0x71        0x70                          movl     %esi, %eax                0x1                              
0x9035                           D1F8             0x71                                      sarl     0x1, %eax                 0x1                              
0x9037                           03842448010000   0x71        0x6a                          addl     0x148(%esp), %eax         0x2                              
0x903e                           83E601           0x71        0x6e                          andl     $0x1, %esi                0x1                              
0x9041                           D1FB             0x72        0x70                          sarl     0x1, %ebx                 0x1                              
0x9043                           0FAFDF           0x72        0x6a                          imull    %edi, %ebx                0x1                              
0x9046                           83E501           0x72        0x6e                          andl     $0x1, %ebp                0x1                              
0x9049                           03C3             0x72        0x70                          addl     %ebx, %eax                0x1                              
0x904b                           03442460         0x72                                      addl     0x60(%esp), %eax          0x2                              
0x904f                           6A08             0x72                                      pushl    $0x8                      0x3                              
0x9051                           55               0x72                                      pushl    %ebp                      0x3                              
0x9052                           56               0x72                                      pushl    %esi                      0x3                              
0x9053                           52               0x72        0x6a                          pushl    %edx                      0x3                              
0x9054                           8B942490000000   0x72        0x70                          movl     0x90(%esp), %edx          0x1                              
0x905b                           52               0x72                                      pushl    %edx                      0x3                              
0x905c                           57               0x72        0x6a                          pushl    %edi                      0x3                              
0x905d                           8BBC2480000000   0x72        0x70                          movl     0x80(%esp), %edi          0x1                              
0x9064                           57               0x71                                      pushl    %edi                      0x3                              
0x9065                           50               0x71                                      pushl    %eax                      0x3                              
0x9066                           51               0x71        0x6a                          pushl    %ecx                      0x3                              
0x9067                           8B9C24A8000000   0x71        0x70                          movl     0xa8(%esp), %ebx          0x1                              
0x906e                           E8932C0000       0x71        0x6a                          call     bdist2                    0x4                              0x3
0x9073  field_ME+bad:            83C424           0x71        0x6e                          addl     $0x24, %esp               0x1                              
0x9076                           03D8             0x71        0x70                          addl     %eax, %ebx                0x1                              
0x9078                           E961020000       0x71        0x6a                          jmp      field_ME+e18              0x1                              0x3
0x907d  field_ME+bb7:            3BD9             0x71        0x6e                          cmpl     %ecx, %ebx                0x1                              
0x907f                           7D6F             0x71        0x70                          jge      field_ME+c2a              0x1                              0x3
0x9081  field_ME+bbb:            3BDA             0x72        0x6a                          cmpl     %edx, %ebx                0x1                              
0x9083                           7D6B             0x72        0x70                          jge      field_ME+c2a              0x1                              0x3
0x9085  field_ME+bbf:            3BD8             0x72        0x6a                          cmpl     %eax, %ebx                0x1                              
0x9087                           7D67             0x72        0x70                          jge      field_ME+c2a              0x1                              0x3
0x9089  field_ME+bc3:            8B84246C010000   0x72                                      movl     0x16c(%esp), %eax         0x1                              
0x9090                           C70008000000     0x72        0x6a                          movl     $0x8, (%eax)              0x2                              
0x9096                           8B94249C000000   0x72        0x70                          movl     0x9c(%esp), %edx          0x1                              
0x909d                           C7400401000000   0x72        0x6a                          movl     $0x1, 0x4(%eax)           0x2                              
0x90a4                           85D2             0x71        0x6e                          testl    %edx, %edx                0x1                              
0x90a6                           7407             0x71        0x70                          je       field_ME+be9              0x1                              0x3
0x90a8  field_ME+be2:            A198930C08       0x71        0x6a                          movl     0x80c9398, %eax           0x1                              
0x90ad                           EB02             0x71        0x6e                          jmp      field_ME+beb              0x1                              0x3
0x90af  field_ME+be9:            33C0             0x71        0x70                          xorl     %eax, %eax                0x1                              
0x90b1  field_ME+beb:            8B9424BC000000   0x71        0x6a                          movl     0xbc(%esp), %edx          0x1                              
0x90b8                           8B4C2474         0x71        0x6e                          movl     0x74(%esp), %ecx          0x1                              
0x90bc                           8BDA             0x71        0x70                          movl     %edx, %ebx                0x1                              
0x90be                           D1FB             0x71        0x6a                          sarl     0x1, %ebx                 0x1                              
0x90c0                           03CB             0x72        0x6e                          addl     %ebx, %ecx                0x1                              
0x90c2                           83E201           0x72        0x70                          andl     $0x1, %edx                0x1                              
0x90c5                           8B9C24B8000000   0x72                                      movl     0xb8(%esp), %ebx          0x1                              
0x90cc                           6A10             0x72        0x6a                          pushl    $0x10                     0x3                              
0x90ce                           8BF3             0x72        0x6e                          movl     %ebx, %esi                0x1                              
0x90d0                           D1FE             0x72        0x70                          sarl     0x1, %esi                 0x1                              
0x90d2                           0FAFF7           0x72        0x6a                          imull    %edi, %esi                0x1                              
0x90d5                           83E301           0x72        0x6e                          andl     $0x1, %ebx                0x1                              
0x90d8                           03CE             0x72        0x70                          addl     %esi, %ecx                0x1                              
0x90da                           53               0x72                                      pushl    %ebx                      0x3                              
0x90db                           52               0x72        0x6a                          pushl    %edx                      0x3                              
0x90dc                           03C8             0x72        0x70                          addl     %eax, %ecx                0x1                              
0x90de                           57               0x72                                      pushl    %edi                      0x3                              
0x90df                           55               0x72                                      pushl    %ebp                      0x3                              
0x90e0                           51               0x71                                      pushl    %ecx                      0x3                              
0x90e1                           E830230000       0x71        0x6a                          call     dist2                     0x4                              0x3
0x90e6  field_ME+c20:            8BD8             0x71        0x6e                          movl     %eax, %ebx                0x1                              
0x90e8                           83C418           0x71        0x70                          addl     $0x18, %esp               0x1                              
0x90eb                           E9EE010000       0x71        0x6a                          jmp      field_ME+e18              0x1                              0x3
0x90f0  field_ME+c2a:            3BCA             0x71        0x6e                          cmpl     %edx, %ecx                0x1                              
0x90f2                           0F8DC1000000     0x71        0x70                          jge      field_ME+cf3              0x1                              0x3
0x90f8  field_ME+c32:            3BC8             0x71        0x6a                          cmpl     %eax, %ecx                0x1                              
0x90fa                           0F8DB9000000     0x71        0x70                          jge      field_ME+cf3              0x1                              0x3
0x9100  field_ME+c3a:            8B84246C010000   0x72                                      movl     0x16c(%esp), %eax         0x1                              
0x9107                           C70008000000     0x72        0x6a                          movl     $0x8, (%eax)              0x2                              
0x910d                           8B942498000000   0x72        0x70                          movl     0x98(%esp), %edx          0x1                              
0x9114                           C7400402000000   0x72        0x6a                          movl     $0x2, 0x4(%eax)           0x2                              
0x911b                           85D2             0x72        0x6e                          testl    %edx, %edx                0x1                              
0x911d                           7408             0x72        0x70                          je       field_ME+c61              0x1                              0x3
0x911f  field_ME+c59:            8B1598930C08     0x72        0x6a                          movl     0x80c9398, %edx           0x1                              
0x9125                           EB02             0x71        0x6e                          jmp      field_ME+c63              0x1                              0x3
0x9127  field_ME+c61:            33D2             0x71        0x70                          xorl     %edx, %edx                0x1                              
0x9129  field_ME+c63:            8B9C24B4000000   0x71        0x6a                          movl     0xb4(%esp), %ebx          0x1                              
0x9130                           8B8C24B0000000   0x71        0x6e                          movl     0xb0(%esp), %ecx          0x1                              
0x9137                           8BF3             0x71        0x70                          movl     %ebx, %esi                0x1                              
0x9139                           D1FE             0x71        0x6a                          sarl     0x1, %esi                 0x1                              
0x913b                           83E301           0x71        0x6e                          andl     $0x1, %ebx                0x1                              
0x913e                           8BC1             0x71        0x70                          movl     %ecx, %eax                0x1                              
0x9140                           03742474         0x72                                      addl     0x74(%esp), %esi          0x2                              
0x9144                           6A08             0x72        0x6a                          pushl    $0x8                      0x3                              
0x9146                           D1F8             0x72        0x6e                          sarl     0x1, %eax                 0x1                              
0x9148                           0FAFC7           0x72        0x70                          imull    %edi, %eax                0x1                              
0x914b                           83E101           0x72        0x6a                          andl     $0x1, %ecx                0x1                              
0x914e                           03F0             0x72        0x70                          addl     %eax, %esi                0x1                              
0x9150                           51               0x72                                      pushl    %ecx                      0x3                              
0x9151                           53               0x72        0x6a                          pushl    %ebx                      0x3                              
0x9152                           03F2             0x72        0x70                          addl     %edx, %esi                0x1                              
0x9154                           57               0x72                                      pushl    %edi                      0x3                              
0x9155                           55               0x72                                      pushl    %ebp                      0x3                              
0x9156                           56               0x72                                      pushl    %esi                      0x3                              
0x9157                           E8BA220000       0x72        0x6a                          call     dist2                     0x4                              0x3
0x915c  field_ME+c96:            8BD8             0x72        0x6e                          movl     %eax, %ebx                0x1                              
0x915e                           83C418           0x72        0x70                          addl     $0x18, %esp               0x1                              
0x9161                           8B942494000000   0x71        0x6a                          movl     0x94(%esp), %edx          0x1                              
0x9168                           85D2             0x71        0x6e                          testl    %edx, %edx                0x1                              
0x916a                           7408             0x71        0x70                          je       field_ME+cae              0x1                              0x3
0x916c  field_ME+ca6:            8B1598930C08     0x71        0x6a                          movl     0x80c9398, %edx           0x1                              
0x9172                           EB02             0x71        0x6e                          jmp      field_ME+cb0              0x1                              0x3
0x9174  field_ME+cae:            33D2             0x71        0x70                          xorl     %edx, %edx                0x1                              
0x9176  field_ME+cb0:            8B8C24AC000000   0x71        0x6a                          movl     0xac(%esp), %ecx          0x1                              
0x917d                           8B6C2474         0x71        0x6e                          movl     0x74(%esp), %ebp          0x1                              
0x9181                           8B8424A8000000   0x72        0x70                          movl     0xa8(%esp), %eax          0x1                              
0x9188                           6A08             0x72        0x6a                          pushl    $0x8                      0x3                              
0x918a                           8BF1             0x72        0x6e                          movl     %ecx, %esi                0x1                              
0x918c                           D1FE             0x72        0x70                          sarl     0x1, %esi                 0x1                              
0x918e                           03EE             0x72        0x6a                          addl     %esi, %ebp                0x1                              
0x9190                           83E101           0x72        0x6e                          andl     $0x1, %ecx                0x1                              
0x9193                           8BF0             0x72        0x70                          movl     %eax, %esi                0x1                              
0x9195                           D1FE             0x72        0x6a                          sarl     0x1, %esi                 0x1                              
0x9197                           0FAFF7           0x72        0x6e                          imull    %edi, %esi                0x1                              
0x919a                           83E001           0x72        0x70                          andl     $0x1, %eax                0x1                              
0x919d                           03EE             0x72                                      addl     %esi, %ebp                0x1                              
0x919f                           50               0x72                                      pushl    %eax                      0x3                              
0x91a0                           51               0x71        0x6a                          pushl    %ecx                      0x3                              
0x91a1                           03EA             0x71        0x70                          addl     %edx, %ebp                0x1                              
0x91a3                           57               0x71        0x6a                          pushl    %edi                      0x3                              
0x91a4                           8B542478         0x71        0x70                          movl     0x78(%esp), %edx          0x1                              
0x91a8                           52               0x71                                      pushl    %edx                      0x3                              
0x91a9                           55               0x71                                      pushl    %ebp                      0x3                              
0x91aa                           E867220000       0x71        0x6a                          call     dist2                     0x4                              0x3
0x91af  field_ME+ce9:            83C418           0x71        0x6e                          addl     $0x18, %esp               0x1                              
0x91b2                           03D8             0x71        0x70                          addl     %eax, %ebx                0x1                              
0x91b4                           E925010000       0x71        0x6a                          jmp      field_ME+e18              0x1                              0x3
0x91b9  field_ME+cf3:            3BD0             0x71        0x6e                          cmpl     %eax, %edx                0x1                              
0x91bb                           7D69             0x71        0x70                          jge      field_ME+d60              0x1                              0x3
0x91bd  field_ME+cf7:            8B84246C010000   0x71                                      movl     0x16c(%esp), %eax         0x1                              
0x91c4                           C70004000000     0x72        0x6a                          movl     $0x4, (%eax)              0x2                              
0x91ca                           8B9424C8000000   0x72        0x70                          movl     0xc8(%esp), %edx          0x1                              
0x91d1                           C7400401000000   0x72        0x6a                          movl     $0x1, 0x4(%eax)           0x2                              
0x91d8                           85D2             0x72        0x6e                          testl    %edx, %edx                0x1                              
0x91da                           7408             0x72        0x70                          je       field_ME+d1e              0x1                              0x3
0x91dc  field_ME+d16:            8B1598930C08     0x72        0x6a                          movl     0x80c9398, %edx           0x1                              
0x91e2                           EB02             0x71        0x6e                          jmp      field_ME+d20              0x1                              0x3
0x91e4  field_ME+d1e:            33D2             0x71        0x70                          xorl     %edx, %edx                0x1                              
0x91e6  field_ME+d20:            8B9C24E8000000   0x71        0x6a                          movl     0xe8(%esp), %ebx          0x1                              
0x91ed                           8B8C24E4000000   0x71        0x6e                          movl     0xe4(%esp), %ecx          0x1                              
0x91f4                           8BF3             0x71        0x70                          movl     %ebx, %esi                0x1                              
0x91f6                           D1FE             0x71        0x6a                          sarl     0x1, %esi                 0x1                              
0x91f8                           83E301           0x71        0x6e                          andl     $0x1, %ebx                0x1                              
0x91fb                           8BC1             0x71        0x70                          movl     %ecx, %eax                0x1                              
0x91fd                           03B42448010000   0x71                                      addl     0x148(%esp), %esi         0x2                              
0x9204                           6A10             0x72        0x6a                          pushl    $0x10                     0x3                              
0x9206                           D1F8             0x72        0x6e                          sarl     0x1, %eax                 0x1                              
0x9208                           0FAFC7           0x72        0x70                          imull    %edi, %eax                0x1                              
0x920b                           83E101           0x72        0x6a                          andl     $0x1, %ecx                0x1                              
0x920e                           03F0             0x72        0x70                          addl     %eax, %esi                0x1                              
0x9210                           51               0x72                                      pushl    %ecx                      0x3                              
0x9211                           53               0x72        0x6a                          pushl    %ebx                      0x3                              
0x9212                           03F2             0x72        0x70                          addl     %edx, %esi                0x1                              
0x9214                           57               0x72                                      pushl    %edi                      0x3                              
0x9215                           55               0x72                                      pushl    %ebp                      0x3                              
0x9216                           56               0x72                                      pushl    %esi                      0x3                              
0x9217                           E8FA210000       0x72        0x6a                          call     dist2                     0x4                              0x3
0x921c  field_ME+d56:            8BD8             0x72        0x6e                          movl     %eax, %ebx                0x1                              
0x921e                           83C418           0x72        0x70                          addl     $0x18, %esp               0x1                              
0x9221                           E9B8000000       0x71        0x6a                          jmp      field_ME+e18              0x1                              0x3
0x9226  field_ME+d60:            8B84246C010000   0x71        0x70                          movl     0x16c(%esp), %eax         0x1                              
0x922d                           C70004000000     0x71        0x6a                          movl     $0x4, (%eax)              0x2                              
0x9233                           8B9424C4000000   0x71        0x70                          movl     0xc4(%esp), %edx          0x1                              
0x923a                           C7400402000000   0x71        0x6a                          movl     $0x2, 0x4(%eax)           0x2                              
0x9241                           85D2             0x72        0x6e                          testl    %edx, %edx                0x1                              
0x9243                           7408             0x72        0x70                          je       field_ME+d87              0x1                              0x3
0x9245  field_ME+d7f:            8B1598930C08     0x72        0x6a                          movl     0x80c9398, %edx           0x1                              
0x924b                           EB02             0x72        0x6e                          jmp      field_ME+d89              0x1                              0x3
0x924d  field_ME+d87:            33D2             0x72        0x70                          xorl     %edx, %edx                0x1                              
0x924f  field_ME+d89:            8B9C24E0000000   0x72        0x6a                          movl     0xe0(%esp), %ebx          0x1                              
0x9256                           8B8C24DC000000   0x72        0x6e                          movl     0xdc(%esp), %ecx          0x1                              
0x925d                           8BF3             0x72        0x70                          movl     %ebx, %esi                0x1                              
0x925f                           D1FE             0x72        0x6a                          sarl     0x1, %esi                 0x1                              
0x9261                           83E301           0x71        0x6e                          andl     $0x1, %ebx                0x1                              
0x9264                           8BC1             0x71        0x70                          movl     %ecx, %eax                0x1                              
0x9266                           03B42448010000   0x71                                      addl     0x148(%esp), %esi         0x2                              
0x926d                           6A08             0x71        0x6a                          pushl    $0x8                      0x3                              
0x926f                           D1F8             0x71        0x6e                          sarl     0x1, %eax                 0x1                              
0x9271                           0FAFC7           0x71        0x70                          imull    %edi, %eax                0x1                              
0x9274                           83E101           0x71        0x6a                          andl     $0x1, %ecx                0x1                              
0x9277                           03F0             0x71        0x70                          addl     %eax, %esi                0x1                              
0x9279                           51               0x71                                      pushl    %ecx                      0x3                              
0x927a                           53               0x71        0x6a                          pushl    %ebx                      0x3                              
0x927b                           03F2             0x71        0x70                          addl     %edx, %esi                0x1                              
0x927d                           57               0x71                                      pushl    %edi                      0x3                              
0x927e                           55               0x71                                      pushl    %ebp                      0x3                              
0x927f                           56               0x71                                      pushl    %esi                      0x3                              
0x9280                           E891210000       0x72        0x6a                          call     dist2                     0x4                              0x3
0x9285  field_ME+dbf:            8BD8             0x72        0x6e                          movl     %eax, %ebx                0x1                              
0x9287                           83C418           0x72        0x70                          addl     $0x18, %esp               0x1                              
0x928a                           8B9424C0000000   0x72        0x6a                          movl     0xc0(%esp), %edx          0x1                              
0x9291                           85D2             0x72        0x6e                          testl    %edx, %edx                0x1                              
0x9293                           7408             0x72        0x70                          je       field_ME+dd7              0x1                              0x3
0x9295  field_ME+dcf:            8B2D98930C08     0x72        0x6a                          movl     0x80c9398, %ebp           0x1                              
0x929b                           EB02             0x72        0x6e                          jmp      field_ME+dd9              0x1                              0x3
0x929d  field_ME+dd7:            33ED             0x72        0x70                          xorl     %ebp, %ebp                0x1                              
0x929f  field_ME+dd9:            8B8424D8000000   0x72        0x6a                          movl     0xd8(%esp), %eax          0x1                              
0x92a6                           8BB424D4000000   0x71        0x6e                          movl     0xd4(%esp), %esi          0x1                              
0x92ad                           8BD0             0x71        0x70                          movl     %eax, %edx                0x1                              
0x92af                           D1FA             0x71        0x6a                          sarl     0x1, %edx                 0x1                              
0x92b1                           83E001           0x71        0x6e                          andl     $0x1, %eax                0x1                              
0x92b4                           8BCE             0x71        0x70                          movl     %esi, %ecx                0x1                              
0x92b6                           03942448010000   0x71                                      addl     0x148(%esp), %edx         0x2                              
0x92bd                           6A08             0x71        0x6a                          pushl    $0x8                      0x3                              
0x92bf                           D1F9             0x71        0x6e                          sarl     0x1, %ecx                 0x1                              
0x92c1                           0FAFCF           0x72        0x70                          imull    %edi, %ecx                0x1                              
0x92c4                           83E601           0x72        0x6a                          andl     $0x1, %esi                0x1                              
0x92c7                           03D1             0x72        0x70                          addl     %ecx, %edx                0x1                              
0x92c9                           56               0x72                                      pushl    %esi                      0x3                              
0x92ca                           50               0x72        0x6a                          pushl    %eax                      0x3                              
0x92cb                           03D5             0x72        0x70                          addl     %ebp, %edx                0x1                              
0x92cd                           57               0x72        0x6a                          pushl    %edi                      0x3                              
0x92ce                           8B6C2478         0x72        0x70                          movl     0x78(%esp), %ebp          0x1                              
0x92d2                           55               0x72                                      pushl    %ebp                      0x3                              
0x92d3                           52               0x72                                      pushl    %edx                      0x3                              
0x92d4                           E83D210000       0x72        0x6a                          call     dist2                     0x4                              0x3
0x92d9  field_ME+e13:            83C418           0x72        0x6e                          addl     $0x18, %esp               0x1                              
0x92dc                           03D8             0x72        0x70                          addl     %eax, %ebx                0x1                              
0x92de  field_ME+e18:            8B542470         0x72        0x6a                          movl     0x70(%esp), %edx          0x1                              
0x92e2                           3BDA             0x71        0x6e                          cmpl     %edx, %ebx                0x1                              
0x92e4                           7E1A             0x71        0x70                          jle      field_ME+e3a              0x1                              0x3
0x92e6  field_ME+e20:            81FB00090000     0x71        0x6a                          cmpl     $0x900, %ebx              0x1                              
0x92ec                           7C12             0x71        0x70                          jnge     field_ME+e3a              0x1                              0x3
0x92ee  field_ME+e28:            8B84246C010000   0x71                                      movl     0x16c(%esp), %eax         0x1                              
0x92f5                           C70001000000     0x71        0x6a                          movl     $0x1, (%eax)              0x2                              
0x92fb                           E9BF000000       0x71        0x6e                          jmp      field_ME+ef9              0x1                              0x3
0x9300  field_ME+e3a:            8B84246C010000   0x72        0x70                          movl     0x16c(%esp), %eax         0x1                              
0x9307                           8B5004           0x72                                      movl     0x4(%eax), %edx           0x1                              
0x930a                           895C2470         0x72        0x6a                          movl     %ebx, 0x70(%esp)          0x2                              
0x930e                           8B9C2454010000   0x72        0x6e                          movl     0x154(%esp), %ebx         0x1                              
0x9315                           8D1C1B           0x72        0x70                          leal     (%ebx, %ebx, 1), %ebx     0x1                              
0x9318                           83FA01           0x72        0x6a                          cmpl     $0x1, %edx                0x1                              
0x931b                           0F845B020000     0x72        0x70                          je       field_ME+10b6             0x1                              0x3
0x9321  field_ME+e5b:            8BAC24B4000000   0x71        0x6a                          movl     0xb4(%esp), %ebp          0x1                              
0x9328                           8B8C246C010000   0x71        0x6e                          movl     0x16c(%esp), %ecx         0x1                              
0x932f                           2BEB             0x71        0x70                          subl     %ebx, %ebp                0x1                              
0x9331                           896918           0x71        0x6a                          movl     %ebp, 0x18(%ecx)          0x2                              
0x9334                           8BAC2458010000   0x71        0x6e                          movl     0x158(%esp), %ebp         0x1                              
0x933b                           8BB424B0000000   0x71        0x70                          movl     0xb0(%esp), %esi          0x1                              
0x9342                           8D542D00         0x72        0x6a                          leal     (%ebp, %ebp, 1), %edx     0x1                              
0x9346                           2BF2             0x72        0x70                          subl     %edx, %esi                0x1                              
0x9348                           89711C           0x72        0x6a                          movl     %esi, 0x1c(%ecx)          0x2                              
0x934b                           8BBC2498000000   0x72        0x70                          movl     0x98(%esp), %edi          0x1                              
0x9352                           897938           0x72        0x6a                          movl     %edi, 0x38(%ecx)          0x2                              
0x9355                           8B8424AC000000   0x72        0x6e                          movl     0xac(%esp), %eax          0x1                              
0x935c                           2BC3             0x72        0x70                          subl     %ebx, %eax                0x1                              
0x935e                           894128           0x72        0x6a                          movl     %eax, 0x28(%ecx)          0x2                              
0x9361                           8D442D10         0x71        0x6e                          leal     0x10(%ebp, %ebp, 1), %eax 0x1                              
0x9365                           8BAC24A8000000   0x71        0x70                          movl     0xa8(%esp), %ebp          0x1                              
0x936c                           2BE8             0x71                                      subl     %eax, %ebp                0x1                              
0x936e                           89692C           0x71        0x6a                          movl     %ebp, 0x2c(%ecx)          0x2                              
0x9371                           8BAC2494000000   0x71        0x70                          movl     0x94(%esp), %ebp          0x1                              
0x9378                           896940           0x71        0x6a                          movl     %ebp, 0x40(%ecx)          0x2                              
0x937b                           8BAC24E0000000   0x71        0x6e                          movl     0xe0(%esp), %ebp          0x1                              
0x9382                           2BEB             0x72        0x70                          subl     %ebx, %ebp                0x1                              
0x9384                           896920           0x72        0x6a                          movl     %ebp, 0x20(%ecx)          0x2                              
0x9387                           8BAC24DC000000   0x72        0x6e                          movl     0xdc(%esp), %ebp          0x1                              
0x938e                           2BEA             0x72        0x70                          subl     %edx, %ebp                0x1                              
0x9390                           896924           0x72        0x6a                          movl     %ebp, 0x24(%ecx)          0x2                              
0x9393                           8B9424C4000000   0x72        0x70                          movl     0xc4(%esp), %edx          0x1                              
0x939a                           89513C           0x72        0x6a                          movl     %edx, 0x3c(%ecx)          0x2                              
0x939d                           8B9424D8000000   0x72        0x6e                          movl     0xd8(%esp), %edx          0x1                              
0x93a4                           2BD3             0x71        0x70                          subl     %ebx, %edx                0x1                              
0x93a6                           895130           0x71        0x6a                          movl     %edx, 0x30(%ecx)          0x2                              
0x93a9                           8B9C24D4000000   0x71        0x6e                          movl     0xd4(%esp), %ebx          0x1                              
0x93b0                           2BD8             0x71        0x70                          subl     %eax, %ebx                0x1                              
0x93b2                           895934           0x71        0x6a                          movl     %ebx, 0x34(%ecx)          0x2                              
0x93b5                           8B8424C0000000   0x71        0x70                          movl     0xc0(%esp), %eax          0x1                              
0x93bc                           894144           0x71        0x6a                          movl     %eax, 0x44(%ecx)          0x2                              
0x93bf  field_ME+ef9:            8B94246C010000   0x71        0x6e                          movl     0x16c(%esp), %edx         0x1                              
0x93c6                           8B442470         0x72        0x70                          movl     0x70(%esp), %eax          0x1                              
0x93ca                           894258           0x72        0x6a                          movl     %eax, 0x58(%edx)          0x2                              
0x93cd                           81C428010000     0x72        0x70                          addl     $0x128, %esp              0x1                              
0x93d3                           5B               0x72                                      popl     %ebx                      0x2                              
0x93d4                           5D               0x72                                      popl     %ebp                      0x2                              
0x93d5                           5E               0x72                                      popl     %esi                      0x2                              
0x93d6                           5F               0x72                                      popl     %edi                      0x2                              
0x93d7                           C3               0x72        0x6a                          ret                                0x4                              
0x93d8  field_ME+f12:            8B94244C010000   0x72        0x6e                          movl     0x14c(%esp), %edx         0x1                              
0x93df                           8BC1             0x72        0x70                          movl     %ecx, %eax                0x1                              
0x93e1                           8D0C02           0x71        0x6a                          leal     (%edx, %eax, 1), %ecx     0x1                              
0x93e4                           8B942450010000   0x71        0x6e                          movl     0x150(%esp), %edx         0x1                              
0x93eb                           8D0410           0x71        0x70                          leal     (%eax, %edx, 1), %eax     0x1                              
0x93ee                           894C246C         0x71                                      movl     %ecx, 0x6c(%esp)          0x2                              
0x93f2                           89442464         0x71        0x6a                          movl     %eax, 0x64(%esp)          0x2                              
0x93f6                           E985F1FFFF       0x71        0x6e                          jmp      field_ME+ba               0x1                              0x3
0x93fb  field_ME+f35:            8B84246C010000   0x71        0x70                          movl     0x16c(%esp), %eax         0x1                              
0x9402                           C7403801000000   0x72        0x6a                          movl     $0x1, 0x38(%eax)          0x2                              
0x9409                           EBB4             0x72        0x6e                          jmp      field_ME+ef9              0x1                              0x3
0x940b  field_ME+f45:            8B542464         0x72        0x70                          movl     0x64(%esp), %edx          0x1                              
0x940f                           89542474         0x72        0x6a                          movl     %edx, 0x74(%esp)          0x2                              
0x9413                           E9F7F3FFFF       0x72        0x6e                          jmp      field_ME+349              0x1                              0x3
0x9418  field_ME+f52:            8B842454010000   0x72        0x70                          movl     0x154(%esp), %eax         0x1                              
0x941f                           8B8C2490000000   0x72        0x6a                          movl     0x90(%esp), %ecx          0x1                              
0x9426                           8B9C2458010000   0x71        0x6e                          movl     0x158(%esp), %ebx         0x1                              
0x942d                           8D1400           0x71        0x70                          leal     (%eax, %eax, 1), %edx     0x1                              
0x9430                           2BCA             0x71        0x6a                          subl     %edx, %ecx                0x1                              
0x9432                           8D2C1B           0x71        0x6e                          leal     (%ebx, %ebx, 1), %ebp     0x1                              
0x9435                           8B94246C010000   0x71        0x70                          movl     0x16c(%esp), %edx         0x1                              
0x943c                           894A18           0x71        0x6a                          movl     %ecx, 0x18(%edx)          0x2                              
0x943f                           8BB4248C000000   0x71        0x6e                          movl     0x8c(%esp), %esi          0x1                              
0x9446                           2BF5             0x72        0x70                          subl     %ebp, %esi                0x1                              
0x9448                           89721C           0x72        0x6a                          movl     %esi, 0x1c(%edx)          0x2                              
0x944b                           8BBC2424010000   0x72        0x70                          movl     0x124(%esp), %edi         0x1                              
0x9452                           897A48           0x72        0x6a                          movl     %edi, 0x48(%edx)          0x2                              
0x9455                           8B842420010000   0x72        0x70                          movl     0x120(%esp), %eax         0x1                              
0x945c                           89424C           0x72        0x6a                          movl     %eax, 0x4c(%edx)          0x2                              
0x945f                           E95BFFFFFF       0x72        0x6e                          jmp      field_ME+ef9              0x1                              0x3
0x9464  field_ME+f9e:            8B842454010000   0x71        0x70                          movl     0x154(%esp), %eax         0x1                              
0x946b                           8B8C2414010000   0x71        0x6a                          movl     0x114(%esp), %ecx         0x1                              
0x9472                           8B9C2458010000   0x71        0x6e                          movl     0x158(%esp), %ebx         0x1                              
0x9479                           8D1400           0x71        0x70                          leal     (%eax, %eax, 1), %edx     0x1                              
0x947c                           2BCA             0x71        0x6a                          subl     %edx, %ecx                0x1                              
0x947e                           8D2C1B           0x71        0x6e                          leal     (%ebx, %ebx, 1), %ebp     0x1                              
0x9481                           8B84246C010000   0x72        0x70                          movl     0x16c(%esp), %eax         0x1                              
0x9488                           894818           0x72        0x6a                          movl     %ecx, 0x18(%eax)          0x2                              
0x948b                           8BB42410010000   0x72        0x6e                          movl     0x110(%esp), %esi         0x1                              
0x9492                           2BF5             0x72        0x70                          subl     %ebp, %esi                0x1                              
0x9494                           89701C           0x72        0x6a                          movl     %esi, 0x1c(%eax)          0x2                              
0x9497                           8BBC24FC000000   0x72        0x70                          movl     0xfc(%esp), %edi          0x1                              
0x949e                           897838           0x72        0x6a                          movl     %edi, 0x38(%eax)          0x2                              
0x94a1                           E919FFFFFF       0x71        0x6e                          jmp      field_ME+ef9              0x1                              0x3
0x94a6  field_ME+fe0:            8B842474010000   0x71        0x70                          movl     0x174(%esp), %eax         0x1                              
0x94ad                           85C0             0x71        0x6a                          testl    %eax, %eax                0x1                              
0x94af                           7547             0x71        0x70                          jnz      field_ME+1032             0x1                              0x3
0x94b1  field_ME+feb:            8B9424F0000000   0x71        0x6a                          movl     0xf0(%esp), %edx          0x1                              
0x94b8                           8B84241C010000   0x71        0x6e                          movl     0x11c(%esp), %eax         0x1                              
0x94bf                           3BC2             0x71        0x70                          cmpl     %edx, %eax                0x1                              
0x94c1                           7D29             0x72                                      jge      field_ME+1026             0x1                              0x3
0x94c3  field_ME+ffd:            8B8C24EC000000   0x72        0x6a                          movl     0xec(%esp), %ecx          0x1                              
0x94ca                           3BC1             0x72        0x6e                          cmpl     %ecx, %eax                0x1                              
0x94cc                           0F8DC9F1FFFF     0x72        0x70                          jge      field_ME+1d5              0x1                              0x3
0x94d2  field_ME+100c:           8B84246C010000   0x72        0x6a                          movl     0x16c(%esp), %eax         0x1                              
0x94d9                           8B9C2418010000   0x72        0x70                          movl     0x118(%esp), %ebx         0x1                              
0x94e0                           C7400403000000   0x71        0x6a                          movl     $0x3, 0x4(%eax)           0x2                              
0x94e7                           E9E3F2FFFF       0x71        0x6e                          jmp      field_ME+309              0x1                              0x3
0x94ec  field_ME+1026:           8B8C24EC000000   0x71        0x70                          movl     0xec(%esp), %ecx          0x1                              
0x94f3                           E9A3F1FFFF       0x71        0x6a                          jmp      field_ME+1d5              0x1                              0x3
0x94f8  field_ME+1032:           8B9424F0000000   0x71        0x6e                          movl     0xf0(%esp), %edx          0x1                              
0x94ff                           8B8C24EC000000   0x71        0x70                          movl     0xec(%esp), %ecx          0x1                              
0x9506                           E990F1FFFF       0x72        0x6a                          jmp      field_ME+1d5              0x1                              0x3
0x950b  field_ME+1045:           8B842474010000   0x72        0x6e                          movl     0x174(%esp), %eax         0x1                              
0x9512                           85C0             0x72        0x70                          testl    %eax, %eax                0x1                              
0x9514                           0F856AF1FFFF     0x72                                      jnz      field_ME+1be              0x1                              0x3
0x951a  field_ME+1054:           8D9C2424010000   0x72        0x6a                          leal     0x124(%esp), %ebx         0x1                              
0x9521                           8D8C2420010000   0x71        0x6e                          leal     0x120(%esp), %ecx         0x1                              
0x9528                           8D94241C010000   0x71        0x70                          leal     0x11c(%esp), %edx         0x1                              
0x952f                           8D842418010000   0x71                                      leal     0x118(%esp), %eax         0x1                              
0x9536                           50               0x71                                      pushl    %eax                      0x3                              
0x9537                           52               0x71                                      pushl    %edx                      0x3                              
0x9538                           51               0x71                                      pushl    %ecx                      0x3                              
0x9539                           53               0x71                                      pushl    %ebx                      0x3                              
0x953a                           FFB4249C000000   0x71                                      pushl    0x9c(%esp)                0x4                              
0x9541                           FFB424A4000000   0x72        0x6a                          pushl    0xa4(%esp)                0x4                              
0x9548                           8B842470010000   0x72        0x70                          movl     0x170(%esp), %eax         0x1                              
0x954f                           50               0x72        0x6a                          pushl    %eax                      0x3                              
0x9550                           8B842470010000   0x72        0x70                          movl     0x170(%esp), %eax         0x1                              
0x9557                           50               0x72                                      pushl    %eax                      0x3                              
0x9558                           55               0x72        0x6a                          pushl    %ebp                      0x3                              
0x9559                           8B842488000000   0x72        0x70                          movl     0x88(%esp), %eax          0x1                              
0x9560                           50               0x71        0x6a                          pushl    %eax                      0x3                              
0x9561                           8B84249C000000   0x71        0x70                          movl     0x9c(%esp), %eax          0x1                              
0x9568                           50               0x71                                      pushl    %eax                      0x3                              
0x9569                           E8980C0000       0x71        0x6a                          call     dpfield_estimate          0x4                              0x3
0x956e  field_ME+10a8:           83C42C           0x71        0x6e                          addl     $0x2c, %esp               0x1                              
0x9571                           8B1510920C08     0x71        0x70                          movl     0x80c9210, %edx           0x1                              
0x9577                           E908F1FFFF       0x71        0x6a                          jmp      field_ME+1be              0x1                              0x3
0x957c  field_ME+10b6:           8B9424BC000000   0x71        0x6e                          movl     0xbc(%esp), %edx          0x1                              
0x9583                           8B84246C010000   0x72        0x70                          movl     0x16c(%esp), %eax         0x1                              
0x958a                           8B8C2458010000   0x72        0x6a                          movl     0x158(%esp), %ecx         0x1                              
0x9591                           2BD3             0x72        0x70                          subl     %ebx, %edx                0x1                              
0x9593                           895018           0x72        0x6a                          movl     %edx, 0x18(%eax)          0x2                              
0x9596                           8D1409           0x72        0x6e                          leal     (%ecx, %ecx, 1), %edx     0x1                              
0x9599                           8BAC24B8000000   0x72        0x70                          movl     0xb8(%esp), %ebp          0x1                              
0x95a0                           2BEA             0x71                                      subl     %edx, %ebp                0x1                              
0x95a2                           89681C           0x71        0x6a                          movl     %ebp, 0x1c(%eax)          0x2                              
0x95a5                           8BB4249C000000   0x71        0x70                          movl     0x9c(%esp), %esi          0x1                              
0x95ac                           897038           0x71        0x6a                          movl     %esi, 0x38(%eax)          0x2                              
0x95af                           8BBC24E8000000   0x71        0x6e                          movl     0xe8(%esp), %edi          0x1                              
0x95b6                           2BFB             0x71        0x70                          subl     %ebx, %edi                0x1                              
0x95b8                           897820           0x71        0x6a                          movl     %edi, 0x20(%eax)          0x2                              
0x95bb                           8B9C24E4000000   0x71        0x6e                          movl     0xe4(%esp), %ebx          0x1                              
0x95c2                           2BDA             0x72        0x70                          subl     %edx, %ebx                0x1                              
0x95c4                           895824           0x72        0x6a                          movl     %ebx, 0x24(%eax)          0x2                              
0x95c7                           8B9424C8000000   0x72        0x70                          movl     0xc8(%esp), %edx          0x1                              
0x95ce                           89503C           0x72        0x6a                          movl     %edx, 0x3c(%eax)          0x2                              
0x95d1                           E9E9FDFFFF       0x72        0x6e                          jmp      field_ME+ef9              0x1                              0x3
0x95d6  field_ME+1110:           8B84246C010000   0x72        0x70                          movl     0x16c(%esp), %eax         0x1                              
0x95dd                           C70001000000     0x72        0x6a                          movl     $0x1, (%eax)              0x2                              
0x95e3                           E9D7FDFFFF       0x71        0x70                          jmp      field_ME+ef9              0x1                              0x3
0x95e8  frame_estimate:          57               0x71                                      pushl    %edi                      0x3                              
0x95e9                           56               0x71                                      pushl    %esi                      0x3                              
0x95ea                           55               0x71                                      pushl    %ebp                      0x3                              
0x95eb                           53               0x71        0x6a                          pushl    %ebx                      0x3                              
0x95ec                           83EC20           0x71        0x6e                          subl     $0x20, %esp               0x1                              
0x95ef                           8B7C2438         0x71        0x70                          movl     0x38(%esp), %edi          0x1                              
0x95f3                           8B74243C         0x71        0x6a                          movl     0x3c(%esp), %esi          0x1                              
0x95f7                           8B4C2440         0x71        0x6e                          movl     0x40(%esp), %ecx          0x1                              
0x95fb                           8B5C2444         0x71        0x70                          movl     0x44(%esp), %ebx          0x1                              
0x95ff                           8B542448         0x71        0x6a                          movl     0x48(%esp), %edx          0x1                              
0x9603                           8B44244C         0x72        0x6e                          movl     0x4c(%esp), %eax          0x1                              
0x9607                           8B2D98930C08     0x72        0x70                          movl     0x80c9398, %ebp           0x1                              
0x960d                           FF742454         0x72                                      pushl    0x54(%esp)                0x4                              
0x9611                           FF742454         0x72                                      pushl    0x54(%esp)                0x4                              
0x9615                           FF3590930C08     0x72                                      pushl    0x80c9390                 0x4                              
0x961b                           55               0x72                                      pushl    %ebp                      0x3                              
0x961c                           6A10             0x72                                      pushl    $0x10                     0x3                              
0x961e                           50               0x72                                      pushl    %eax                      0x3                              
0x961f                           52               0x72                                      pushl    %edx                      0x3                              
0x9620                           53               0x71                                      pushl    %ebx                      0x3                              
0x9621                           51               0x71                                      pushl    %ecx                      0x3                              
0x9622                           55               0x71                                      pushl    %ebp                      0x3                              
0x9623                           56               0x71                                      pushl    %esi                      0x3                              
0x9624                           57               0x71        0x6a                          pushl    %edi                      0x3                              
0x9625                           8B442464         0x71        0x70                          movl     0x64(%esp), %eax          0x1                              
0x9629                           50               0x71        0x6a                          pushl    %eax                      0x3                              
0x962a                           8BAC249C000000   0x71        0x70                          movl     0x9c(%esp), %ebp          0x1                              
0x9631                           E81C0E0000       0x71        0x6a                          call     fullsearch                0x4                              0x3
0x9636  frame_estimate+4e:       8B8C2480000000   0x71        0x6e                          movl     0x80(%esp), %ecx          0x1                              
0x963d                           8D742438         0x71        0x70                          leal     0x38(%esp), %esi          0x1                              
0x9641                           894500           0x72        0x6a                          movl     %eax, (%ebp)              0x2                              
0x9644                           8B1598930C08     0x72        0x6e                          movl     0x80c9398, %edx           0x1                              
0x964a                           D1FB             0x72        0x70                          sarl     0x1, %ebx                 0x1                              
0x964c                           8B3D90930C08     0x72        0x6a                          movl     0x80c9390, %edi           0x1                              
0x9652                           8D6C2434         0x72        0x6e                          leal     0x34(%esp), %ebp          0x1                              
0x9656                           D1F9             0x72        0x70                          sarl     0x1, %ecx                 0x1                              
0x9658                           8D0412           0x72        0x6a                          leal     (%edx, %edx, 1), %eax     0x1                              
0x965b                           D1FF             0x72        0x70                          sarl     0x1, %edi                 0x1                              
0x965d                           894C244C         0x72                                      movl     %ecx, 0x4c(%esp)          0x2                              
0x9661                           55               0x71                                      pushl    %ebp                      0x3                              
0x9662                           56               0x71                                      pushl    %esi                      0x3                              
0x9663                           57               0x71                                      pushl    %edi                      0x3                              
0x9664                           52               0x71                                      pushl    %edx                      0x3                              
0x9665                           6A08             0x71                                      pushl    $0x8                      0x3                              
0x9667                           51               0x71        0x6a                          pushl    %ecx                      0x3                              
0x9668                           8B942494000000   0x71        0x70                          movl     0x94(%esp), %edx          0x1                              
0x966f                           52               0x71                                      pushl    %edx                      0x3                              
0x9670                           53               0x71        0x6a                          pushl    %ebx                      0x3                              
0x9671                           8B942494000000   0x71        0x70                          movl     0x94(%esp), %edx          0x1                              
0x9678                           52               0x71                                      pushl    %edx                      0x3                              
0x9679                           50               0x71        0x6a                          pushl    %eax                      0x3                              
0x967a                           8B842498000000   0x71        0x70                          movl     0x98(%esp), %eax          0x1                              
0x9681                           50               0x72        0x6a                          pushl    %eax                      0x3                              
0x9682                           8B842498000000   0x72        0x70                          movl     0x98(%esp), %eax          0x1                              
0x9689                           50               0x72        0x6a                          pushl    %eax                      0x3                              
0x968a                           8B842498000000   0x72        0x70                          movl     0x98(%esp), %eax          0x1                              
0x9691                           50               0x72                                      pushl    %eax                      0x3                              
0x9692                           E8BB0D0000       0x72                                      call     fullsearch                0x4                              0x3
0x9697  frame_estimate+af:       89442478         0x72        0x6a                          movl     %eax, 0x78(%esp)          0x2                              
0x969b                           83C468           0x72        0x6e                          addl     $0x68, %esp               0x1                              
0x969e                           8B3598930C08     0x72        0x70                          movl     0x80c9398, %esi           0x1                              
0x96a4                           8B7C2434         0x71        0x6a                          movl     0x34(%esp), %edi          0x1                              
0x96a8                           8B442438         0x71        0x6e                          movl     0x38(%esp), %eax          0x1                              
0x96ac                           8D2C37           0x71        0x70                          leal     (%edi, %esi, 1), %ebp     0x1                              
0x96af                           8D0C30           0x71        0x6a                          leal     (%eax, %esi, 1), %ecx     0x1                              
0x96b2                           8D1436           0x71        0x6e                          leal     (%esi, %esi, 1), %edx     0x1                              
0x96b5                           A190930C08       0x71        0x70                          movl     0x80c9390, %eax           0x1                              
0x96ba                           8D7C2408         0x71                                      leal     0x8(%esp), %edi           0x1                              
0x96be                           57               0x71        0x6a                          pushl    %edi                      0x3                              
0x96bf                           D1F8             0x71        0x6e                          sarl     0x1, %eax                 0x1                              
0x96c1                           8D7C2410         0x72        0x70                          leal     0x10(%esp), %edi          0x1                              
0x96c5                           57               0x72                                      pushl    %edi                      0x3                              
0x96c6                           50               0x72                                      pushl    %eax                      0x3                              
0x96c7                           56               0x72                                      pushl    %esi                      0x3                              
0x96c8                           6A08             0x72        0x6a                          pushl    $0x8                      0x3                              
0x96ca                           8B44242C         0x72        0x70                          movl     0x2c(%esp), %eax          0x1                              
0x96ce                           50               0x72        0x6a                          pushl    %eax                      0x3                              
0x96cf                           8B442460         0x72        0x70                          movl     0x60(%esp), %eax          0x1                              
0x96d3                           50               0x72                                      pushl    %eax                      0x3                              
0x96d4                           53               0x72        0x6a                          pushl    %ebx                      0x3                              
0x96d5                           8B442460         0x72        0x70                          movl     0x60(%esp), %eax          0x1                              
0x96d9                           50               0x72                                      pushl    %eax                      0x3                              
0x96da                           52               0x72        0x6a                          pushl    %edx                      0x3                              
0x96db                           8B442464         0x72        0x70                          movl     0x64(%esp), %eax          0x1                              
0x96df                           50               0x72                                      pushl    %eax                      0x3                              
0x96e0                           51               0x71                                      pushl    %ecx                      0x3                              
0x96e1                           55               0x71                                      pushl    %ebp                      0x3                              
0x96e2                           E86B0D0000       0x71        0x6a                          call     fullsearch                0x4                              0x3
0x96e7  frame_estimate+ff:       83C434           0x71        0x6e                          addl     $0x34, %esp               0x1                              
0x96ea                           8B542404         0x71        0x70                          movl     0x4(%esp), %edx           0x1                              
0x96ee                           8B742478         0x71                                      movl     0x78(%esp), %esi          0x1                              
0x96f2                           8916             0x71        0x6a                          movl     %edx, (%esi)              0x2                              
0x96f4                           8B0C24           0x71        0x6e                          movl     (%esp), %ecx              0x1                              
0x96f7                           8B54247C         0x71        0x70                          movl     0x7c(%esp), %edx          0x1                              
0x96fb                           890A             0x71        0x6a                          movl     %ecx, (%edx)              0x2                              
0x96fd                           8B6C240C         0x71        0x70                          movl     0xc(%esp), %ebp           0x1                              
0x9701                           896E08           0x72        0x6a                          movl     %ebp, 0x8(%esi)           0x2                              
0x9704                           8B7C2408         0x72        0x70                          movl     0x8(%esp), %edi           0x1                              
0x9708                           897A08           0x72        0x6a                          movl     %edi, 0x8(%edx)           0x2                              
0x970b                           8B542410         0x72        0x6e                          movl     0x10(%esp), %edx          0x1                              
0x970f                           3BD0             0x72        0x70                          cmpl     %eax, %edx                0x1                              
0x9711                           7F20             0x72                                      jg       frame_estimate+14b        0x1                              0x3
0x9713  frame_estimate+12b:      8B442404         0x72        0x6a                          movl     0x4(%esp), %eax           0x1                              
0x9717                           8B542458         0x72        0x6e                          movl     0x58(%esp), %edx          0x1                              
0x971b                           8B6C245C         0x72        0x70                          movl     0x5c(%esp), %ebp          0x1                              
0x971f                           8B742470         0x72                                      movl     0x70(%esp), %esi          0x1                              
0x9723                           8902             0x71        0x6a                          movl     %eax, (%edx)              0x2                              
0x9725                           8B0C24           0x71        0x70                          movl     (%esp), %ecx              0x1                              
0x9728                           894D00           0x71                                      movl     %ecx, (%ebp)              0x2                              
0x972b                           C70600000000     0x71        0x6a                          movl     $0x0, (%esi)              0x2                              
0x9731                           EB23             0x71        0x6e                          jmp      frame_estimate+16e        0x1                              0x3
0x9733  frame_estimate+14b:      8B542458         0x71        0x70                          movl     0x58(%esp), %edx          0x1                              
0x9737                           8B6C245C         0x71        0x6a                          movl     0x5c(%esp), %ebp          0x1                              
0x973b                           8B742470         0x71        0x70                          movl     0x70(%esp), %esi          0x1                              
0x973f                           89442410         0x71        0x6a                          movl     %eax, 0x10(%esp)          0x2                              
0x9743                           8B44240C         0x72        0x70                          movl     0xc(%esp), %eax           0x1                              
0x9747                           8902             0x72        0x6a                          movl     %eax, (%edx)              0x2                              
0x9749                           8B4C2408         0x72        0x70                          movl     0x8(%esp), %ecx           0x1                              
0x974d                           894D00           0x72                                      movl     %ecx, (%ebp)              0x2                              
0x9750                           C70601000000     0x72        0x6a                          movl     $0x1, (%esi)              0x2                              
0x9756  frame_estimate+16e:      8B0D98930C08     0x72        0x6e                          movl     0x80c9398, %ecx           0x1                              
0x975c                           8B6C243C         0x72        0x70                          movl     0x3c(%esp), %ebp          0x1                              
0x9760                           8D7C2404         0x71        0x6a                          leal     0x4(%esp), %edi           0x1                              
0x9764                           8D3424           0x71        0x6e                          leal     (%esp), %esi              0x1                              
0x9767                           8D540D00         0x71        0x70                          leal     (%ebp, %ecx, 1), %edx     0x1                              
0x976b                           8D0409           0x71        0x6a                          leal     (%ecx, %ecx, 1), %eax     0x1                              
0x976e                           8B2D90930C08     0x71        0x70                          movl     0x80c9390, %ebp           0x1                              
0x9774                           56               0x71                                      pushl    %esi                      0x3                              
0x9775                           57               0x71        0x6a                          pushl    %edi                      0x3                              
0x9776                           D1FD             0x71        0x70                          sarl     0x1, %ebp                 0x1                              
0x9778                           55               0x71                                      pushl    %ebp                      0x3                              
0x9779                           51               0x71                                      pushl    %ecx                      0x3                              
0x977a                           6A08             0x71        0x6a                          pushl    $0x8                      0x3                              
0x977c                           8B4C242C         0x71        0x70                          movl     0x2c(%esp), %ecx          0x1                              
0x9780                           51               0x72        0x6a                          pushl    %ecx                      0x3                              
0x9781                           8B4C2460         0x72        0x70                          movl     0x60(%esp), %ecx          0x1                              
0x9785                           51               0x72                                      pushl    %ecx                      0x3                              
0x9786                           53               0x72        0x6a                          pushl    %ebx                      0x3                              
0x9787                           8B4C2460         0x72        0x70                          movl     0x60(%esp), %ecx          0x1                              
0x978b                           51               0x72                                      pushl    %ecx                      0x3                              
0x978c                           50               0x72                                      pushl    %eax                      0x3                              
0x978d                           52               0x72        0x6a                          pushl    %edx                      0x3                              
0x978e                           8B442464         0x72        0x70                          movl     0x64(%esp), %eax          0x1                              
0x9792                           50               0x72        0x6a                          pushl    %eax                      0x3                              
0x9793                           8B442464         0x72        0x70                          movl     0x64(%esp), %eax          0x1                              
0x9797                           50               0x72                                      pushl    %eax                      0x3                              
0x9798                           E8B50C0000       0x72                                      call     fullsearch                0x4                              0x3
0x979d  frame_estimate+1b5:      89442448         0x72        0x6a                          movl     %eax, 0x48(%esp)          0x2                              
0x97a1                           8B3598930C08     0x71        0x6e                          movl     0x80c9398, %esi           0x1                              
0x97a7                           8B7C2468         0x71        0x70                          movl     0x68(%esp), %edi          0x1                              
0x97ab                           8D0437           0x71                                      leal     (%edi, %esi, 1), %eax     0x1                              
0x97ae                           89442450         0x71        0x6a                          movl     %eax, 0x50(%esp)          0x2                              
0x97b2                           8D1436           0x71        0x6e                          leal     (%esi, %esi, 1), %edx     0x1                              
0x97b5                           8B44246C         0x71        0x70                          movl     0x6c(%esp), %eax          0x1                              
0x97b9                           8D7C243C         0x71        0x6a                          leal     0x3c(%esp), %edi          0x1                              
0x97bd                           8D2C30           0x71        0x6e                          leal     (%eax, %esi, 1), %ebp     0x1                              
0x97c0                           8B442470         0x72        0x70                          movl     0x70(%esp), %eax          0x1                              
0x97c4                           8D0C30           0x72        0x6a                          leal     (%eax, %esi, 1), %ecx     0x1                              
0x97c7                           A190930C08       0x72        0x70                          movl     0x80c9390, %eax           0x1                              
0x97cc                           57               0x72        0x6a                          pushl    %edi                      0x3                              
0x97cd                           8D7C2444         0x72        0x6e                          leal     0x44(%esp), %edi          0x1                              
0x97d1                           D1F8             0x72        0x70                          sarl     0x1, %eax                 0x1                              
0x97d3                           57               0x72                                      pushl    %edi                      0x3                              
0x97d4                           50               0x72                                      pushl    %eax                      0x3                              
0x97d5                           56               0x72                                      pushl    %esi                      0x3                              
0x97d6                           6A08             0x72        0x6a                          pushl    $0x8                      0x3                              
0x97d8                           8B442460         0x72        0x70                          movl     0x60(%esp), %eax          0x1                              
0x97dc                           50               0x72        0x6a                          pushl    %eax                      0x3                              
0x97dd                           8B842494000000   0x72        0x70                          movl     0x94(%esp), %eax          0x1                              
0x97e4                           50               0x71                                      pushl    %eax                      0x3                              
0x97e5                           53               0x71        0x6a                          pushl    %ebx                      0x3                              
0x97e6                           8B9C2494000000   0x71        0x70                          movl     0x94(%esp), %ebx          0x1                              
0x97ed                           53               0x71                                      pushl    %ebx                      0x3                              
0x97ee                           52               0x71                                      pushl    %edx                      0x3                              
0x97ef                           51               0x71                                      pushl    %ecx                      0x3                              
0x97f0                           55               0x71        0x6a                          pushl    %ebp                      0x3                              
0x97f1                           8B842480000000   0x71        0x70                          movl     0x80(%esp), %eax          0x1                              
0x97f8                           50               0x71                                      pushl    %eax                      0x3                              
0x97f9                           E8540C0000       0x71        0x6a                          call     fullsearch                0x4                              0x3
0x97fe  frame_estimate+216:      83C468           0x71        0x6e                          addl     $0x68, %esp               0x1                              
0x9801                           8B542404         0x72        0x70                          movl     0x4(%esp), %edx           0x1                              
0x9805                           8B6C2478         0x72        0x6a                          movl     0x78(%esp), %ebp          0x1                              
0x9809                           8B7C247C         0x72        0x70                          movl     0x7c(%esp), %edi          0x1                              
0x980d                           895504           0x72        0x6a                          movl     %edx, 0x4(%ebp)           0x2                              
0x9810                           8B0C24           0x72        0x6e                          movl     (%esp), %ecx              0x1                              
0x9813                           8B542414         0x72        0x70                          movl     0x14(%esp), %edx          0x1                              
0x9817                           894F04           0x72        0x6a                          movl     %ecx, 0x4(%edi)           0x2                              
0x981a                           8B5C240C         0x72        0x70                          movl     0xc(%esp), %ebx           0x1                              
0x981e                           895D0C           0x72        0x6a                          movl     %ebx, 0xc(%ebp)           0x2                              
0x9821                           3BC2             0x71        0x6e                          cmpl     %edx, %eax                0x1                              
0x9823                           8B742408         0x71        0x70                          movl     0x8(%esp), %esi           0x1                              
0x9827                           89770C           0x71        0x6a                          movl     %esi, 0xc(%edi)           0x2                              
0x982a                           7F21             0x71        0x70                          jg       frame_estimate+265        0x1                              0x3
0x982c  frame_estimate+244:      8B54240C         0x71        0x6a                          movl     0xc(%esp), %edx           0x1                              
0x9830                           8B4C2460         0x71        0x6e                          movl     0x60(%esp), %ecx          0x1                              
0x9834                           8B6C2464         0x71        0x70                          movl     0x64(%esp), %ebp          0x1                              
0x9838                           8B742474         0x71                                      movl     0x74(%esp), %esi          0x1                              
0x983c                           8911             0x71        0x6a                          movl     %edx, (%ecx)              0x2                              
0x983e                           8B5C2408         0x71        0x70                          movl     0x8(%esp), %ebx           0x1                              
0x9842                           895D00           0x72                                      movl     %ebx, (%ebp)              0x2                              
0x9845                           C70601000000     0x72        0x6a                          movl     $0x1, (%esi)              0x2                              
0x984b                           EB20             0x72        0x6e                          jmp      frame_estimate+285        0x1                              0x3
0x984d  frame_estimate+265:      8BC2             0x72        0x70                          movl     %edx, %eax                0x1                              
0x984f                           8B542404         0x72        0x6a                          movl     0x4(%esp), %edx           0x1                              
0x9853                           8B4C2460         0x72        0x6e                          movl     0x60(%esp), %ecx          0x1                              
0x9857                           8B6C2464         0x72        0x70                          movl     0x64(%esp), %ebp          0x1                              
0x985b                           8B742474         0x72                                      movl     0x74(%esp), %esi          0x1                              
0x985f                           8911             0x72        0x6a                          movl     %edx, (%ecx)              0x2                              
0x9861                           8B1C24           0x71        0x70                          movl     (%esp), %ebx              0x1                              
0x9864                           895D00           0x71                                      movl     %ebx, (%ebp)              0x2                              
0x9867                           C70600000000     0x71        0x6a                          movl     $0x0, (%esi)              0x2                              
0x986d  frame_estimate+285:      8B542410         0x71        0x6e                          movl     0x10(%esp), %edx          0x1                              
0x9871                           03D0             0x71        0x70                          addl     %eax, %edx                0x1                              
0x9873                           8B44246C         0x71                                      movl     0x6c(%esp), %eax          0x1                              
0x9877                           8910             0x71        0x6a                          movl     %edx, (%eax)              0x2                              
0x9879                           83C420           0x71        0x70                          addl     $0x20, %esp               0x1                              
0x987c                           5B               0x71                                      popl     %ebx                      0x2                              
0x987d                           5D               0x71                                      popl     %ebp                      0x2                              
0x987e                           5E               0x71                                      popl     %esi                      0x2                              
0x987f                           5F               0x71                                      popl     %edi                      0x2                              
0x9880                           C3               0x72        0x6a                          ret                                0x4                              
0x9881  frame_estimate+299:      90               0x72        0x70                          nop                                0x1                              
0x9882  field_estimate:          57               0x72                                      pushl    %edi                      0x3                              
0x9883                           56               0x72                                      pushl    %esi                      0x3                              
0x9884                           55               0x72                                      pushl    %ebp                      0x3                              
0x9885                           53               0x72        0x6a                          pushl    %ebx                      0x3                              
0x9886                           83EC18           0x72        0x6e                          subl     $0x18, %esp               0x1                              
0x9889                           8B442450         0x72        0x70                          movl     0x50(%esp), %eax          0x1                              
0x988d                           85C0             0x72        0x6a                          testl    %eax, %eax                0x1                              
0x988f                           740F             0x72        0x70                          je       field_estimate+1e         0x1                              0x3
0x9891  field_estimate+f:        8B159C930C08     0x72        0x6a                          movl     0x80c939c, %edx           0x1                              
0x9897                           83FA01           0x72        0x6e                          cmpl     $0x1, %edx                0x1                              
0x989a                           0F847D030000     0x72        0x70                          je       field_estimate+39b        0x1                              0x3
0x98a0  field_estimate+1e:       33ED             0x71        0x6a                          xorl     %ebp, %ebp                0x1                              
0x98a2                           85C0             0x71        0x6e                          testl    %eax, %eax                0x1                              
0x98a4                           740F             0x71        0x70                          je       field_estimate+33         0x1                              0x3
0x98a6  field_estimate+24:       8B159C930C08     0x71        0x6a                          movl     0x80c939c, %edx           0x1                              
0x98ac  field_estimate+2a:       83FA02           0x71        0x6e                          cmpl     $0x2, %edx                0x1                              
0x98af                           0F8472030000     0x71        0x70                          je       field_estimate+3a5        0x1                              0x3
0x98b5  field_estimate+33:       33DB             0x71        0x6a                          xorl     %ebx, %ebx                0x1                              
0x98b7  field_estimate+35:       85ED             0x71        0x6e                          testl    %ebp, %ebp                0x1                              
0x98b9                           7407             0x71        0x70                          je       field_estimate+40         0x1                              0x3
0x98bb  field_estimate+39:       BE00000100       0x71        0x6a                          movl     $0x10000, %esi            0x1                              
0x98c0                           EB4D             0x72        0x6e                          jmp      field_estimate+8d         0x1                              0x3
0x98c2  field_estimate+40:       8B1598930C08     0x72        0x70                          movl     0x80c9398, %edx           0x1                              
0x98c8                           8B4C244C         0x72        0x6a                          movl     0x4c(%esp), %ecx          0x1                              
0x98cc                           A190930C08       0x72        0x6e                          movl     0x80c9390, %eax           0x1                              
0x98d1                           8D3C24           0x72        0x70                          leal     (%esp), %edi              0x1                              
0x98d4                           8D3412           0x72        0x6a                          leal     (%edx, %edx, 1), %esi     0x1                              
0x98d7                           D1F9             0x72        0x70                          sarl     0x1, %ecx                 0x1                              
0x98d9                           57               0x72        0x6a                          pushl    %edi                      0x3                              
0x98da                           8D7C2408         0x72        0x70                          leal     0x8(%esp), %edi           0x1                              
0x98de                           57               0x72        0x6a                          pushl    %edi                      0x3                              
0x98df                           D1F8             0x72        0x70                          sarl     0x1, %eax                 0x1                              
0x98e1                           50               0x71                                      pushl    %eax                      0x3                              
0x98e2                           52               0x71                                      pushl    %edx                      0x3                              
0x98e3                           6A10             0x71                                      pushl    $0x10                     0x3                              
0x98e5                           51               0x71        0x6a                          pushl    %ecx                      0x3                              
0x98e6                           8B442460         0x71        0x70                          movl     0x60(%esp), %eax          0x1                              
0x98ea                           50               0x71        0x6a                          pushl    %eax                      0x3                              
0x98eb                           8B442460         0x71        0x70                          movl     0x60(%esp), %eax          0x1                              
0x98ef                           50               0x71        0x6a                          pushl    %eax                      0x3                              
0x98f0                           8B442460         0x71        0x70                          movl     0x60(%esp), %eax          0x1                              
0x98f4                           50               0x71                                      pushl    %eax                      0x3                              
0x98f5                           56               0x71        0x6a                          pushl    %esi                      0x3                              
0x98f6                           8B442464         0x71        0x70                          movl     0x64(%esp), %eax          0x1                              
0x98fa                           50               0x71        0x6a                          pushl    %eax                      0x3                              
0x98fb                           8B44245C         0x71        0x70                          movl     0x5c(%esp), %eax          0x1                              
0x98ff                           50               0x71        0x6a                          pushl    %eax                      0x3                              
0x9900                           8B44245C         0x72        0x70                          movl     0x5c(%esp), %eax          0x1                              
0x9904                           50               0x72                                      pushl    %eax                      0x3                              
0x9905                           E8480B0000       0x72        0x6a                          call     fullsearch                0x4                              0x3
0x990a  field_estimate+88:       8BF0             0x72        0x6e                          movl     %eax, %esi                0x1                              
0x990c                           83C434           0x72        0x70                          addl     $0x34, %esp               0x1                              
0x990f  field_estimate+8d:       85DB             0x72        0x6a                          testl    %ebx, %ebx                0x1                              
0x9911                           7407             0x72        0x70                          je       field_estimate+98         0x1                              0x3
0x9913  field_estimate+91:       B800000100       0x72        0x6a                          movl     $0x10000, %eax            0x1                              
0x9918                           EB54             0x72        0x6e                          jmp      field_estimate+ec         0x1                              0x3
0x991a  field_estimate+98:       8B1598930C08     0x72        0x70                          movl     0x80c9398, %edx           0x1                              
0x9920                           8B4C244C         0x71        0x6a                          movl     0x4c(%esp), %ecx          0x1                              
0x9924                           A190930C08       0x71        0x70                          movl     0x80c9390, %eax           0x1                              
0x9929                           89742410         0x71        0x6a                          movl     %esi, 0x10(%esp)          0x2                              
0x992d                           8D3412           0x71        0x6e                          leal     (%edx, %edx, 1), %esi     0x1                              
0x9930                           8D7C2408         0x71        0x70                          leal     0x8(%esp), %edi           0x1                              
0x9934                           57               0x71        0x6a                          pushl    %edi                      0x3                              
0x9935                           8D7C2410         0x71        0x6e                          leal     0x10(%esp), %edi          0x1                              
0x9939                           D1F9             0x71        0x70                          sarl     0x1, %ecx                 0x1                              
0x993b                           D1F8             0x71                                      sarl     0x1, %eax                 0x1                              
0x993d                           57               0x71                                      pushl    %edi                      0x3                              
0x993e                           50               0x71                                      pushl    %eax                      0x3                              
0x993f                           52               0x71                                      pushl    %edx                      0x3                              
0x9940                           6A10             0x72                                      pushl    $0x10                     0x3                              
0x9942                           51               0x72        0x6a                          pushl    %ecx                      0x3                              
0x9943                           8B442460         0x72        0x70                          movl     0x60(%esp), %eax          0x1                              
0x9947                           50               0x72        0x6a                          pushl    %eax                      0x3                              
0x9948                           8B442460         0x72        0x70                          movl     0x60(%esp), %eax          0x1                              
0x994c                           50               0x72        0x6a                          pushl    %eax                      0x3                              
0x994d                           8B442460         0x72        0x70                          movl     0x60(%esp), %eax          0x1                              
0x9951                           50               0x72                                      pushl    %eax                      0x3                              
0x9952                           56               0x72        0x6a                          pushl    %esi                      0x3                              
0x9953                           8B442464         0x72        0x70                          movl     0x64(%esp), %eax          0x1                              
0x9957                           50               0x72        0x6a                          pushl    %eax                      0x3                              
0x9958                           8B442464         0x72        0x70                          movl     0x64(%esp), %eax          0x1                              
0x995c                           50               0x72        0x6a                          pushl    %eax                      0x3                              
0x995d                           8B442464         0x72        0x70                          movl     0x64(%esp), %eax          0x1                              
0x9961                           50               0x71        0x6a                          pushl    %eax                      0x3                              
0x9962                           8B742444         0x71        0x70                          movl     0x44(%esp), %esi          0x1                              
0x9966                           E8E70A0000       0x71        0x6a                          call     fullsearch                0x4                              0x3
0x996b  field_estimate+e9:       83C434           0x71        0x6e                          addl     $0x34, %esp               0x1                              
0x996e  field_estimate+ec:       8B159C930C08     0x71        0x70                          movl     0x80c939c, %edx           0x1                              
0x9974                           83FA01           0x71        0x6a                          cmpl     $0x1, %edx                0x1                              
0x9977                           0F84B4020000     0x71        0x70                          je       field_estimate+3af        0x1                              0x3
0x997d  field_estimate+fb:       8B54240C         0x71        0x6a                          movl     0xc(%esp), %edx           0x1                              
0x9981                           8B8C2480000000   0x72        0x70                          movl     0x80(%esp), %ecx          0x1                              
0x9988                           8911             0x72        0x6a                          movl     %edx, (%ecx)              0x2                              
0x998a                           8B7C2408         0x72        0x6e                          movl     0x8(%esp), %edi           0x1                              
0x998e                           8B942484000000   0x72        0x70                          movl     0x84(%esp), %edx          0x1                              
0x9995                           893A             0x72        0x6a                          movl     %edi, (%edx)              0x2                              
0x9997                           8B942488000000   0x72        0x70                          movl     0x88(%esp), %edx          0x1                              
0x999e                           8902             0x72        0x6a                          movl     %eax, (%edx)              0x2                              
0x99a0  field_estimate+11e:      3BF0             0x71        0x6e                          cmpl     %eax, %esi                0x1                              
0x99a2                           7F25             0x71        0x70                          jg       field_estimate+147        0x1                              0x3
0x99a4  field_estimate+122:      8B54246C         0x71        0x6a                          movl     0x6c(%esp), %edx          0x1                              
0x99a8                           8B4C2454         0x71        0x6e                          movl     0x54(%esp), %ecx          0x1                              
0x99ac                           8B7C2458         0x71        0x70                          movl     0x58(%esp), %edi          0x1                              
0x99b0                           8932             0x71        0x6a                          movl     %esi, (%edx)              0x2                              
0x99b2                           8B442404         0x71        0x70                          movl     0x4(%esp), %eax           0x1                              
0x99b6                           8901             0x71        0x6a                          movl     %eax, (%ecx)              0x2                              
0x99b8                           8B3424           0x71        0x6e                          movl     (%esp), %esi              0x1                              
0x99bb                           8B442474         0x71        0x70                          movl     0x74(%esp), %eax          0x1                              
0x99bf                           8937             0x71                                      movl     %esi, (%edi)              0x2                              
0x99c1                           C70000000000     0x72        0x6a                          movl     $0x0, (%eax)              0x2                              
0x99c7                           EB24             0x72        0x6e                          jmp      field_estimate+16b        0x1                              0x3
0x99c9  field_estimate+147:      8B54246C         0x72        0x70                          movl     0x6c(%esp), %edx          0x1                              
0x99cd                           8B4C2454         0x72        0x6a                          movl     0x54(%esp), %ecx          0x1                              
0x99d1                           8B7C2458         0x72        0x70                          movl     0x58(%esp), %edi          0x1                              
0x99d5                           8902             0x72        0x6a                          movl     %eax, (%edx)              0x2                              
0x99d7                           8B44240C         0x72        0x70                          movl     0xc(%esp), %eax           0x1                              
0x99db                           8901             0x72        0x6a                          movl     %eax, (%ecx)              0x2                              
0x99dd                           8B742408         0x72        0x6e                          movl     0x8(%esp), %esi           0x1                              
0x99e1                           8B442474         0x71        0x70                          movl     0x74(%esp), %eax          0x1                              
0x99e5                           8937             0x71                                      movl     %esi, (%edi)              0x2                              
0x99e7                           C70001000000     0x71        0x6a                          movl     $0x1, (%eax)              0x2                              
0x99ed  field_estimate+16b:      85ED             0x71        0x6e                          testl    %ebp, %ebp                0x1                              
0x99ef                           7407             0x71        0x70                          je       field_estimate+176        0x1                              0x3
0x99f1  field_estimate+16f:      BE00000100       0x71        0x6a                          movl     $0x10000, %esi            0x1                              
0x99f6                           EB4D             0x71        0x6e                          jmp      field_estimate+1c3        0x1                              0x3
0x99f8  field_estimate+176:      8B1598930C08     0x71        0x70                          movl     0x80c9398, %edx           0x1                              
0x99fe                           8B4C244C         0x71        0x6a                          movl     0x4c(%esp), %ecx          0x1                              
0x9a02                           A190930C08       0x72        0x6e                          movl     0x80c9390, %eax           0x1                              
0x9a07                           8D3C24           0x72        0x70                          leal     (%esp), %edi              0x1                              
0x9a0a                           8D3412           0x72        0x6a                          leal     (%edx, %edx, 1), %esi     0x1                              
0x9a0d                           D1F9             0x72        0x70                          sarl     0x1, %ecx                 0x1                              
0x9a0f                           57               0x72        0x6a                          pushl    %edi                      0x3                              
0x9a10                           8D7C2408         0x72        0x70                          leal     0x8(%esp), %edi           0x1                              
0x9a14                           57               0x72        0x6a                          pushl    %edi                      0x3                              
0x9a15                           D1F8             0x72        0x70                          sarl     0x1, %eax                 0x1                              
0x9a17                           50               0x72                                      pushl    %eax                      0x3                              
0x9a18                           52               0x72                                      pushl    %edx                      0x3                              
0x9a19                           6A08             0x72                                      pushl    $0x8                      0x3                              
0x9a1b                           51               0x72        0x6a                          pushl    %ecx                      0x3                              
0x9a1c                           8B442460         0x72        0x70                          movl     0x60(%esp), %eax          0x1                              
0x9a20                           50               0x71        0x6a                          pushl    %eax                      0x3                              
0x9a21                           8B442460         0x71        0x70                          movl     0x60(%esp), %eax          0x1                              
0x9a25                           50               0x71        0x6a                          pushl    %eax                      0x3                              
0x9a26                           8B442460         0x71        0x70                          movl     0x60(%esp), %eax          0x1                              
0x9a2a                           50               0x71                                      pushl    %eax                      0x3                              
0x9a2b                           56               0x71        0x6a                          pushl    %esi                      0x3                              
0x9a2c                           8B442464         0x71        0x70                          movl     0x64(%esp), %eax          0x1                              
0x9a30                           50               0x71        0x6a                          pushl    %eax                      0x3                              
0x9a31                           8B44245C         0x71        0x70                          movl     0x5c(%esp), %eax          0x1                              
0x9a35                           50               0x71        0x6a                          pushl    %eax                      0x3                              
0x9a36                           8B44245C         0x71        0x70                          movl     0x5c(%esp), %eax          0x1                              
0x9a3a                           50               0x71                                      pushl    %eax                      0x3                              
0x9a3b                           E8120A0000       0x71        0x6a                          call     fullsearch                0x4                              0x3
0x9a40  field_estimate+1be:      8BF0             0x72        0x6e                          movl     %eax, %esi                0x1                              
0x9a42                           83C434           0x72        0x70                          addl     $0x34, %esp               0x1                              
0x9a45  field_estimate+1c3:      85DB             0x72        0x6a                          testl    %ebx, %ebx                0x1                              
0x9a47                           7407             0x72        0x70                          je       field_estimate+1ce        0x1                              0x3
0x9a49  field_estimate+1c7:      B800000100       0x72        0x6a                          movl     $0x10000, %eax            0x1                              
0x9a4e                           EB54             0x72        0x6e                          jmp      field_estimate+222        0x1                              0x3
0x9a50  field_estimate+1ce:      8B1598930C08     0x72        0x70                          movl     0x80c9398, %edx           0x1                              
0x9a56                           8B4C244C         0x72        0x6a                          movl     0x4c(%esp), %ecx          0x1                              
0x9a5a                           A190930C08       0x72        0x70                          movl     0x80c9390, %eax           0x1                              
0x9a5f                           89742410         0x72        0x6a                          movl     %esi, 0x10(%esp)          0x2                              
0x9a63                           8D3412           0x71        0x6e                          leal     (%edx, %edx, 1), %esi     0x1                              
0x9a66                           8D7C2408         0x71        0x70                          leal     0x8(%esp), %edi           0x1                              
0x9a6a                           57               0x71        0x6a                          pushl    %edi                      0x3                              
0x9a6b                           8D7C2410         0x71        0x6e                          leal     0x10(%esp), %edi          0x1                              
0x9a6f                           D1F9             0x71        0x70                          sarl     0x1, %ecx                 0x1                              
0x9a71                           D1F8             0x71                                      sarl     0x1, %eax                 0x1                              
0x9a73                           57               0x71                                      pushl    %edi                      0x3                              
0x9a74                           50               0x71                                      pushl    %eax                      0x3                              
0x9a75                           52               0x71                                      pushl    %edx                      0x3                              
0x9a76                           6A08             0x71                                      pushl    $0x8                      0x3                              
0x9a78                           51               0x71        0x6a                          pushl    %ecx                      0x3                              
0x9a79                           8B442460         0x71        0x70                          movl     0x60(%esp), %eax          0x1                              
0x9a7d                           50               0x71        0x6a                          pushl    %eax                      0x3                              
0x9a7e                           8B442460         0x71        0x70                          movl     0x60(%esp), %eax          0x1                              
0x9a82                           50               0x72        0x6a                          pushl    %eax                      0x3                              
0x9a83                           8B442460         0x72        0x70                          movl     0x60(%esp), %eax          0x1                              
0x9a87                           50               0x72                                      pushl    %eax                      0x3                              
0x9a88                           56               0x72        0x6a                          pushl    %esi                      0x3                              
0x9a89                           8B442464         0x72        0x70                          movl     0x64(%esp), %eax          0x1                              
0x9a8d                           50               0x72        0x6a                          pushl    %eax                      0x3                              
0x9a8e                           8B442464         0x72        0x70                          movl     0x64(%esp), %eax          0x1                              
0x9a92                           50               0x72        0x6a                          pushl    %eax                      0x3                              
0x9a93                           8B442464         0x72        0x70                          movl     0x64(%esp), %eax          0x1                              
0x9a97                           50               0x72        0x6a                          pushl    %eax                      0x3                              
0x9a98                           8B742444         0x72        0x70                          movl     0x44(%esp), %esi          0x1                              
0x9a9c                           E8B1090000       0x72        0x6a                          call     fullsearch                0x4                              0x3
0x9aa1  field_estimate+21f:      83C434           0x71        0x6e                          addl     $0x34, %esp               0x1                              
0x9aa4  field_estimate+222:      3BF0             0x71        0x70                          cmpl     %eax, %esi                0x1                              
0x9aa6                           7F25             0x71                                      jg       field_estimate+24b        0x1                              0x3
0x9aa8  field_estimate+226:      8B542470         0x71        0x6a                          movl     0x70(%esp), %edx          0x1                              
0x9aac                           8B4C245C         0x71        0x6e                          movl     0x5c(%esp), %ecx          0x1                              
0x9ab0                           8B7C2460         0x71        0x70                          movl     0x60(%esp), %edi          0x1                              
0x9ab4                           8932             0x71        0x6a                          movl     %esi, (%edx)              0x2                              
0x9ab6                           8B442404         0x71        0x70                          movl     0x4(%esp), %eax           0x1                              
0x9aba                           8901             0x71        0x6a                          movl     %eax, (%ecx)              0x2                              
0x9abc                           8B3424           0x71        0x6e                          movl     (%esp), %esi              0x1                              
0x9abf                           8B442478         0x71        0x70                          movl     0x78(%esp), %eax          0x1                              
0x9ac3                           8937             0x72                                      movl     %esi, (%edi)              0x2                              
0x9ac5                           C70000000000     0x72        0x6a                          movl     $0x0, (%eax)              0x2                              
0x9acb                           EB24             0x72        0x6e                          jmp      field_estimate+26f        0x1                              0x3
0x9acd  field_estimate+24b:      8B542470         0x72        0x70                          movl     0x70(%esp), %edx          0x1                              
0x9ad1                           8B4C245C         0x72        0x6a                          movl     0x5c(%esp), %ecx          0x1                              
0x9ad5                           8B7C2460         0x72        0x70                          movl     0x60(%esp), %edi          0x1                              
0x9ad9                           8902             0x72        0x6a                          movl     %eax, (%edx)              0x2                              
0x9adb                           8B44240C         0x72        0x70                          movl     0xc(%esp), %eax           0x1                              
0x9adf                           8901             0x72        0x6a                          movl     %eax, (%ecx)              0x2                              
0x9ae1                           8B742408         0x71        0x6e                          movl     0x8(%esp), %esi           0x1                              
0x9ae5                           8B442478         0x71        0x70                          movl     0x78(%esp), %eax          0x1                              
0x9ae9                           8937             0x71                                      movl     %esi, (%edi)              0x2                              
0x9aeb                           C70001000000     0x71        0x6a                          movl     $0x1, (%eax)              0x2                              
0x9af1  field_estimate+26f:      85ED             0x71        0x6e                          testl    %ebp, %ebp                0x1                              
0x9af3                           7407             0x71        0x70                          je       field_estimate+27a        0x1                              0x3
0x9af5  field_estimate+273:      BD00000100       0x71        0x6a                          movl     $0x10000, %ebp            0x1                              
0x9afa                           EB5D             0x71        0x6e                          jmp      field_estimate+2d7        0x1                              0x3
0x9afc  field_estimate+27a:      8B7C2444         0x71        0x70                          movl     0x44(%esp), %edi          0x1                              
0x9b00                           8B54244C         0x72        0x6a                          movl     0x4c(%esp), %edx          0x1                              
0x9b04                           A190930C08       0x72        0x70                          movl     0x80c9390, %eax           0x1                              
0x9b09                           895C2414         0x72        0x6a                          movl     %ebx, 0x14(%esp)          0x2                              
0x9b0d                           8D4F08           0x72        0x6e                          leal     0x8(%edi), %ecx           0x1                              
0x9b10                           8B1D98930C08     0x72        0x70                          movl     0x80c9398, %ebx           0x1                              
0x9b16                           8D3C24           0x72        0x6a                          leal     (%esp), %edi              0x1                              
0x9b19                           8BF3             0x72        0x6e                          movl     %ebx, %esi                0x1                              
0x9b1b                           C1E604           0x72        0x70                          shll     $0x4, %esi                0x1                              
0x9b1e                           8D2C1B           0x72        0x6a                          leal     (%ebx, %ebx, 1), %ebp     0x1                              
0x9b21                           D1FA             0x71        0x70                          sarl     0x1, %edx                 0x1                              
0x9b23                           0374243C         0x71                                      addl     0x3c(%esp), %esi          0x2                              
0x9b27                           57               0x71        0x6a                          pushl    %edi                      0x3                              
0x9b28                           D1F8             0x71        0x6e                          sarl     0x1, %eax                 0x1                              
0x9b2a                           8D7C2408         0x71        0x70                          leal     0x8(%esp), %edi           0x1                              
0x9b2e                           57               0x71                                      pushl    %edi                      0x3                              
0x9b2f                           50               0x71                                      pushl    %eax                      0x3                              
0x9b30                           53               0x71                                      pushl    %ebx                      0x3                              
0x9b31                           6A08             0x71                                      pushl    $0x8                      0x3                              
0x9b33                           52               0x71        0x6a                          pushl    %edx                      0x3                              
0x9b34                           8B442460         0x71        0x70                          movl     0x60(%esp), %eax          0x1                              
0x9b38                           50               0x71                                      pushl    %eax                      0x3                              
0x9b39                           51               0x71        0x6a                          pushl    %ecx                      0x3                              
0x9b3a                           8B442460         0x71        0x70                          movl     0x60(%esp), %eax          0x1                              
0x9b3e                           50               0x71                                      pushl    %eax                      0x3                              
0x9b3f                           55               0x71                                      pushl    %ebp                      0x3                              
0x9b40                           56               0x72        0x6a                          pushl    %esi                      0x3                              
0x9b41                           8B44245C         0x72        0x70                          movl     0x5c(%esp), %eax          0x1                              
0x9b45                           50               0x72        0x6a                          pushl    %eax                      0x3                              
0x9b46                           8B44245C         0x72        0x70                          movl     0x5c(%esp), %eax          0x1                              
0x9b4a                           50               0x72        0x6a                          pushl    %eax                      0x3                              
0x9b4b                           8B5C2448         0x72        0x70                          movl     0x48(%esp), %ebx          0x1                              
0x9b4f                           E8FE080000       0x72        0x6a                          call     fullsearch                0x4                              0x3
0x9b54  field_estimate+2d2:      8BE8             0x72        0x6e                          movl     %eax, %ebp                0x1                              
0x9b56                           83C434           0x72        0x70                          addl     $0x34, %esp               0x1                              
0x9b59  field_estimate+2d7:      85DB             0x72        0x6a                          testl    %ebx, %ebx                0x1                              
0x9b5b                           7407             0x72        0x70                          je       field_estimate+2e2        0x1                              0x3
0x9b5d  field_estimate+2db:      B800000100       0x72        0x6a                          movl     $0x10000, %eax            0x1                              
0x9b62                           EB5C             0x71        0x6e                          jmp      field_estimate+33e        0x1                              0x3
0x9b64  field_estimate+2e2:      8B1D98930C08     0x71        0x70                          movl     0x80c9398, %ebx           0x1                              
0x9b6a                           8B7C2444         0x71        0x6a                          movl     0x44(%esp), %edi          0x1                              
0x9b6e                           8B54244C         0x71        0x6e                          movl     0x4c(%esp), %edx          0x1                              
0x9b72                           A190930C08       0x71        0x70                          movl     0x80c9390, %eax           0x1                              
0x9b77                           896C2410         0x71        0x6a                          movl     %ebp, 0x10(%esp)          0x2                              
0x9b7b                           8BF3             0x71        0x6e                          movl     %ebx, %esi                0x1                              
0x9b7d                           C1E604           0x71        0x70                          shll     $0x4, %esi                0x1                              
0x9b80                           0374243C         0x72        0x6a                          addl     0x3c(%esp), %esi          0x2                              
0x9b84                           8D2C1B           0x72        0x6e                          leal     (%ebx, %ebx, 1), %ebp     0x1                              
0x9b87                           8D4F08           0x72        0x70                          leal     0x8(%edi), %ecx           0x1                              
0x9b8a                           8D7C2408         0x72                                      leal     0x8(%esp), %edi           0x1                              
0x9b8e                           57               0x72        0x6a                          pushl    %edi                      0x3                              
0x9b8f                           D1FA             0x72        0x6e                          sarl     0x1, %edx                 0x1                              
0x9b91                           D1F8             0x72        0x70                          sarl     0x1, %eax                 0x1                              
0x9b93                           8D7C2410         0x72                                      leal     0x10(%esp), %edi          0x1                              
0x9b97                           57               0x72                                      pushl    %edi                      0x3                              
0x9b98                           50               0x72                                      pushl    %eax                      0x3                              
0x9b99                           53               0x72                                      pushl    %ebx                      0x3                              
0x9b9a                           6A08             0x72                                      pushl    $0x8                      0x3                              
0x9b9c                           52               0x72        0x6a                          pushl    %edx                      0x3                              
0x9b9d                           8B442460         0x72        0x70                          movl     0x60(%esp), %eax          0x1                              
0x9ba1                           50               0x71                                      pushl    %eax                      0x3                              
0x9ba2                           51               0x71        0x6a                          pushl    %ecx                      0x3                              
0x9ba3                           8B442460         0x71        0x70                          movl     0x60(%esp), %eax          0x1                              
0x9ba7                           50               0x71                                      pushl    %eax                      0x3                              
0x9ba8                           55               0x71                                      pushl    %ebp                      0x3                              
0x9ba9                           56               0x71        0x6a                          pushl    %esi                      0x3                              
0x9baa                           8B442464         0x71        0x70                          movl     0x64(%esp), %eax          0x1                              
0x9bae                           50               0x71        0x6a                          pushl    %eax                      0x3                              
0x9baf                           8B442464         0x71        0x70                          movl     0x64(%esp), %eax          0x1                              
0x9bb3                           50               0x71        0x6a                          pushl    %eax                      0x3                              
0x9bb4                           8B6C2444         0x71        0x70                          movl     0x44(%esp), %ebp          0x1                              
0x9bb8                           E895080000       0x71        0x6a                          call     fullsearch                0x4                              0x3
0x9bbd  field_estimate+33b:      83C434           0x71        0x6e                          addl     $0x34, %esp               0x1                              
0x9bc0  field_estimate+33e:      3BE8             0x72        0x70                          cmpl     %eax, %ebp                0x1                              
0x9bc2                           7F2C             0x72                                      jg       field_estimate+36e        0x1                              0x3
0x9bc4  field_estimate+342:      8B542470         0x72        0x6a                          movl     0x70(%esp), %edx          0x1                              
0x9bc8                           8B4C2464         0x72        0x6e                          movl     0x64(%esp), %ecx          0x1                              
0x9bcc                           8B74247C         0x72        0x70                          movl     0x7c(%esp), %esi          0x1                              
0x9bd0                           012A             0x72        0x6a                          addl     %ebp, (%edx)              0x4                              
0x9bd2                           8B442404         0x72        0x6e                          movl     0x4(%esp), %eax           0x1                              
0x9bd6                           8B6C2468         0x72        0x70                          movl     0x68(%esp), %ebp          0x1                              
0x9bda                           8901             0x72        0x6a                          movl     %eax, (%ecx)              0x2                              
0x9bdc                           8B1C24           0x72        0x70                          movl     (%esp), %ebx              0x1                              
0x9bdf                           895D00           0x72                                      movl     %ebx, (%ebp)              0x2                              
0x9be2                           C70600000000     0x71        0x6a                          movl     $0x0, (%esi)              0x2                              
0x9be8                           83C418           0x71        0x70                          addl     $0x18, %esp               0x1                              
0x9beb                           5B               0x71                                      popl     %ebx                      0x2                              
0x9bec                           5D               0x71                                      popl     %ebp                      0x2                              
0x9bed                           5E               0x71                                      popl     %esi                      0x2                              
0x9bee                           5F               0x71                                      popl     %edi                      0x2                              
0x9bef                           C3               0x71        0x6a                          ret                                0x4                              
0x9bf0  field_estimate+36e:      8B542470         0x71        0x6e                          movl     0x70(%esp), %edx          0x1                              
0x9bf4                           8B4C2464         0x71        0x70                          movl     0x64(%esp), %ecx          0x1                              
0x9bf8                           8B6C2468         0x71        0x6a                          movl     0x68(%esp), %ebp          0x1                              
0x9bfc                           8B74247C         0x71        0x70                          movl     0x7c(%esp), %esi          0x1                              
0x9c00                           0102             0x72        0x6a                          addl     %eax, (%edx)              0x4                              
0x9c02                           8B44240C         0x72        0x70                          movl     0xc(%esp), %eax           0x1                              
0x9c06                           8901             0x72        0x6a                          movl     %eax, (%ecx)              0x2                              
0x9c08                           8B5C2408         0x72        0x70                          movl     0x8(%esp), %ebx           0x1                              
0x9c0c                           895D00           0x72                                      movl     %ebx, (%ebp)              0x2                              
0x9c0f                           C70601000000     0x72        0x6a                          movl     $0x1, (%esi)              0x2                              
0x9c15                           83C418           0x72        0x70                          addl     $0x18, %esp               0x1                              
0x9c18                           5B               0x72                                      popl     %ebx                      0x2                              
0x9c19                           5D               0x72                                      popl     %ebp                      0x2                              
0x9c1a                           5E               0x72                                      popl     %esi                      0x2                              
0x9c1b                           5F               0x72                                      popl     %edi                      0x2                              
0x9c1c                           C3               0x72        0x6a                          ret                                0x4                              
0x9c1d  field_estimate+39b:      BD01000000       0x72        0x6e                          movl     $0x1, %ebp                0x1                              
0x9c22                           E985FCFFFF       0x71        0x70                          jmp      field_estimate+2a         0x1                              0x3
0x9c27  field_estimate+3a5:      BB01000000       0x71        0x6a                          movl     $0x1, %ebx                0x1                              
0x9c2c                           E986FCFFFF       0x71        0x6e                          jmp      field_estimate+35         0x1                              0x3
0x9c31  field_estimate+3af:      8B542404         0x71        0x70                          movl     0x4(%esp), %edx           0x1                              
0x9c35                           8B8C2480000000   0x71                                      movl     0x80(%esp), %ecx          0x1                              
0x9c3c                           8911             0x71        0x6a                          movl     %edx, (%ecx)              0x2                              
0x9c3e                           8B3C24           0x71        0x6e                          movl     (%esp), %edi              0x1                              
0x9c41                           8B942484000000   0x72        0x70                          movl     0x84(%esp), %edx          0x1                              
0x9c48                           893A             0x72        0x6a                          movl     %edi, (%edx)              0x2                              
0x9c4a                           8B942488000000   0x72        0x70                          movl     0x88(%esp), %edx          0x1                              
0x9c51                           8932             0x72        0x6a                          movl     %esi, (%edx)              0x2                              
0x9c53                           E948FDFFFF       0x72        0x70                          jmp      field_estimate+11e        0x1                              0x3
0x9c58  dpframe_estimate:        57               0x72                                      pushl    %edi                      0x3                              
0x9c59                           56               0x72                                      pushl    %esi                      0x3                              
0x9c5a                           55               0x72                                      pushl    %ebp                      0x3                              
0x9c5b                           53               0x72        0x6a                          pushl    %ebx                      0x3                              
0x9c5c                           83EC78           0x72        0x6e                          subl     $0x78, %esp               0x1                              
0x9c5f                           8BAC2494000000   0x72        0x70                          movl     0x94(%esp), %ebp          0x1                              
0x9c66                           8BBC2498000000   0x71        0x6a                          movl     0x98(%esp), %edi          0x1                              
0x9c6d                           8B94249C000000   0x71        0x6e                          movl     0x9c(%esp), %edx          0x1                              
0x9c74                           8BB424A0000000   0x71        0x70                          movl     0xa0(%esp), %esi          0x1                              
0x9c7b                           B800000040       0x71                                      movl     $0x40000000, %eax         0x1                              
0x9c80                           8944244C         0x72        0x6a                          movl     %eax, 0x4c(%esp)          0x2                              
0x9c84                           33C0             0x72        0x6e                          xorl     %eax, %eax                0x1                              
0x9c86                           8D6C2D00         0x72        0x70                          leal     (%ebp, %ebp, 1), %ebp     0x1                              
0x9c8a                           894C2434         0x72                                      movl     %ecx, 0x34(%esp)          0x2                              
0x9c8e                           894C2438         0x72                                      movl     %ecx, 0x38(%esp)          0x2                              
0x9c92                           895C2428         0x72                                      movl     %ebx, 0x28(%esp)          0x2                              
0x9c96                           895C2424         0x72                                      movl     %ebx, 0x24(%esp)          0x2                              
0x9c9a                           896C240C         0x72        0x6a                          movl     %ebp, 0xc(%esp)           0x2                              
0x9c9e                           8D1C3F           0x72        0x70                          leal     (%edi, %edi, 1), %ebx     0x1                              
0x9ca1                           895C2410         0x71        0x6a                          movl     %ebx, 0x10(%esp)          0x2                              
0x9ca5                           8B1D98930C08     0x71        0x70                          movl     0x80c9398, %ebx           0x1                              
0x9cab                           895C2450         0x71                                      movl     %ebx, 0x50(%esp)          0x2                              
0x9caf                           894C243C         0x71                                      movl     %ecx, 0x3c(%esp)          0x2                              
0x9cb3                           894C2440         0x71                                      movl     %ecx, 0x40(%esp)          0x2                              
0x9cb7                           894C2430         0x71                                      movl     %ecx, 0x30(%esp)          0x2                              
0x9cbb                           894C242C         0x71                                      movl     %ecx, 0x2c(%esp)          0x2                              
0x9cbf  dpframe_estimate+67:     89442408         0x71                                      movl     %eax, 0x8(%esp)           0x2                              
0x9cc3                           89742404         0x72                                      movl     %esi, 0x4(%esp)           0x2                              
0x9cc7                           891424           0x72        0x6a                          movl     %edx, (%esp)              0x2                              
0x9cca                           33C9             0x72        0x6e                          xorl     %ecx, %ecx                0x1                              
0x9ccc  dpframe_estimate+74:     8B2C24           0x72        0x70                          movl     (%esp), %ebp              0x1                              
0x9ccf                           8B5C2404         0x72        0x6a                          movl     0x4(%esp), %ebx           0x1                              
0x9cd3                           8B442408         0x72        0x6e                          movl     0x8(%esp), %eax           0x1                              
0x9cd7                           8B6C8D00         0x72        0x70                          movl     (%ebp, %ecx, 4), %ebp     0x1                              
0x9cdb                           8B1C8B           0x72                                      movl     (%ebx, %ecx, 4), %ebx     0x1                              
0x9cde                           2B6C240C         0x72                                      subl     0xc(%esp), %ebp           0x2                              
0x9ce2                           2B5C2410         0x71        0x6a                          subl     0x10(%esp), %ebx          0x2                              
0x9ce6                           3BC1             0x71        0x6e                          cmpl     %ecx, %eax                0x1                              
0x9ce8                           7455             0x71        0x70                          je       dpframe_estimate+e7       0x1                              0x3
0x9cea  dpframe_estimate+92:     85C9             0x71        0x6a                          testl    %ecx, %ecx                0x1                              
0x9cec                           7505             0x71        0x70                          jnz      dpframe_estimate+9b       0x1                              0x3
0x9cee  dpframe_estimate+96:     83C301           0x71        0x6a                          addl     $0x1, %ebx                0x1                              
0x9cf1                           EB03             0x71        0x6e                          jmp      dpframe_estimate+9e       0x1                              0x3
0x9cf3  dpframe_estimate+9b:     83C3FF           0x71        0x70                          addl     $-1, %ebx                 0x1                              
0x9cf6  dpframe_estimate+9e:     A170890C08       0x71                                      movl     0x80c8970, %eax           0x1                              
0x9cfb                           89442458         0x71        0x6a                          movl     %eax, 0x58(%esp)          0x2                              
0x9cff                           03ED             0x71        0x6e                          addl     %ebp, %ebp                0x1                              
0x9d01                           03DB             0x72        0x70                          addl     %ebx, %ebx                0x1                              
0x9d03                           3BC1             0x72        0x6a                          cmpl     %ecx, %eax                0x1                              
0x9d05                           0F854B030000     0x72        0x70                          jnz      dpframe_estimate+3fe      0x1                              0x3
0x9d0b  dpframe_estimate+b3:     85ED             0x72        0x6a                          testl    %ebp, %ebp                0x1                              
0x9d0d                           0F8CD9040000     0x72        0x70                          jnge     dpframe_estimate+594      0x1                              0x3
0x9d13  dpframe_estimate+bb:     B856555555       0x72        0x6a                          movl     $0x55555556, %eax         0x1                              
0x9d18                           83C501           0x72        0x70                          addl     $0x1, %ebp                0x1                              
0x9d1b                           F7ED             0x72        0x6a                          imull    %ebp                      0x3                              
0x9d1d                           C1FD1F           0x72        0x6e                          sarl     $0x1f, %ebp               0x1                              
0x9d20                           F7DD             0x71        0x70                          negl     %ebp                      0x1                              
0x9d22                           03EA             0x71        0x6a                          addl     %edx, %ebp                0x1                              
0x9d24  dpframe_estimate+cc:     85DB             0x71        0x6e                          testl    %ebx, %ebx                0x1                              
0x9d26                           0F8CA6040000     0x71        0x70                          jnge     dpframe_estimate+57a      0x1                              0x3
0x9d2c  dpframe_estimate+d4:     B856555555       0x71        0x6a                          movl     $0x55555556, %eax         0x1                              
0x9d31                           83C301           0x71        0x70                          addl     $0x1, %ebx                0x1                              
0x9d34                           F7EB             0x71        0x6a                          imull    %ebx                      0x3                              
0x9d36                           C1FB1F           0x71        0x6e                          sarl     $0x1f, %ebx               0x1                              
0x9d39                           F7DB             0x71        0x70                          negl     %ebx                      0x1                              
0x9d3b                           03DA             0x71        0x6a                          addl     %edx, %ebx                0x1                              
0x9d3d                           EB09             0x71        0x6e                          jmp      dpframe_estimate+f0       0x1                              0x3
0x9d3f  dpframe_estimate+e7:     A170890C08       0x71        0x70                          movl     0x80c8970, %eax           0x1                              
0x9d44                           89442458         0x72        0x6a                          movl     %eax, 0x58(%esp)          0x2                              
0x9d48  dpframe_estimate+f0:     85ED             0x72        0x6e                          testl    %ebp, %ebp                0x1                              
0x9d4a                           B800000000       0x72        0x70                          movl     $0x0, %eax                0x1                              
0x9d4f                           0F9FC0           0x72        0x6a                          setg     %al                       0x1                              
0x9d52                           85DB             0x72        0x70                          testl    %ebx, %ebx                0x1                              
0x9d54                           89442460         0x72        0x6a          0x66            movl     %eax, 0x60(%esp)          0x2   Partial_Register_Stall:eax 
0x9d58                           BA00000000       0x72        0x6e                          movl     $0x0, %edx                0x1                              
0x9d5d                           0F9FC2           0x72        0x70                          setg     %dl                       0x1                              
0x9d60                           8D742D00         0x71                                      leal     (%ebp, %ebp, 1), %esi     0x1                              
0x9d64                           8954245C         0x71        0x6a          0x66            movl     %edx, 0x5c(%esp)          0x2   Partial_Register_Stall:edx 
0x9d68                           8B542458         0x71        0x6e                          movl     0x58(%esp), %edx          0x1                              
0x9d6c                           03F5             0x71        0x70                          addl     %ebp, %esi                0x1                              
0x9d6e                           8D3C1B           0x71        0x6a                          leal     (%ebx, %ebx, 1), %edi     0x1                              
0x9d71                           03FB             0x71        0x6e                          addl     %ebx, %edi                0x1                              
0x9d73                           85D2             0x71        0x70                          testl    %edx, %edx                0x1                              
0x9d75                           7431             0x71                                      je       dpframe_estimate+150      0x1                              0x3
0x9d77  dpframe_estimate+11f:    03742460         0x71        0x6a                          addl     0x60(%esp), %esi          0x2                              
0x9d7b                           8D540500         0x71        0x6e                          leal     (%ebp, %eax, 1), %edx     0x1                              
0x9d7f                           D1FA             0x71        0x70                          sarl     0x1, %edx                 0x1                              
0x9d81                           895C2444         0x72                                      movl     %ebx, 0x44(%esp)          0x2                              
0x9d85                           89542418         0x72        0x6a                          movl     %edx, 0x18(%esp)          0x2                              
0x9d89                           8B54245C         0x72        0x6e                          movl     0x5c(%esp), %edx          0x1                              
0x9d8d                           8D1C13           0x72        0x70                          leal     (%ebx, %edx, 1), %ebx     0x1                              
0x9d90                           D1FB             0x72        0x6a                          sarl     0x1, %ebx                 0x1                              
0x9d92                           83C3FF           0x72        0x70                          addl     $-1, %ebx                 0x1                              
0x9d95                           895C2468         0x72        0x6a                          movl     %ebx, 0x68(%esp)          0x2                              
0x9d99                           D1FE             0x72        0x6e                          sarl     0x1, %esi                 0x1                              
0x9d9b                           8B5C2444         0x72        0x70                          movl     0x44(%esp), %ebx          0x1                              
0x9d9f                           03FA             0x72        0x6a                          addl     %edx, %edi                0x1                              
0x9da1                           D1FF             0x71        0x6e                          sarl     0x1, %edi                 0x1                              
0x9da3                           83C701           0x71        0x70                          addl     $0x1, %edi                0x1                              
0x9da6                           EB28             0x71                                      jmp      dpframe_estimate+178      0x1                              0x3
0x9da8  dpframe_estimate+150:    03742460         0x71        0x6a                          addl     0x60(%esp), %esi          0x2                              
0x9dac                           D1FE             0x71        0x70                          sarl     0x1, %esi                 0x1                              
0x9dae                           037C245C         0x71        0x6a                          addl     0x5c(%esp), %edi          0x2                              
0x9db2                           03C5             0x71        0x70                          addl     %ebp, %eax                0x1                              
0x9db4                           89742418         0x71        0x6a                          movl     %esi, 0x18(%esp)          0x2                              
0x9db8                           D1FF             0x71        0x6e                          sarl     0x1, %edi                 0x1                              
0x9dba                           8D7FFF           0x71        0x70                          leal     -1(%edi), %edi            0x1                              
0x9dbd                           897C2468         0x71        0x6a                          movl     %edi, 0x68(%esp)          0x2                              
0x9dc1                           8BF0             0x72        0x6e                          movl     %eax, %esi                0x1                              
0x9dc3                           8B44245C         0x72        0x70                          movl     0x5c(%esp), %eax          0x1                              
0x9dc7                           D1FE             0x72        0x6a                          sarl     0x1, %esi                 0x1                              
0x9dc9                           03C3             0x72        0x6e                          addl     %ebx, %eax                0x1                              
0x9dcb                           D1F8             0x72        0x70                          sarl     0x1, %eax                 0x1                              
0x9dcd                           8D7801           0x72        0x6a                          leal     0x1(%eax), %edi           0x1                              
0x9dd0  dpframe_estimate+178:    8B54240C         0x72        0x70                          movl     0xc(%esp), %edx           0x1                              
0x9dd4                           01542418         0x72        0x6a                          addl     %edx, 0x18(%esp)          0x4                              
0x9dd8                           03EA             0x72        0x6e                          addl     %edx, %ebp                0x1                              
0x9dda                           03F2             0x72        0x70                          addl     %edx, %esi                0x1                              
0x9ddc                           894C2414         0x72        0x6a                          movl     %ecx, 0x14(%esp)          0x2                              
0x9de0                           8B4C2410         0x71        0x70                          movl     0x10(%esp), %ecx          0x1                              
0x9de4                           014C2468         0x71        0x6a                          addl     %ecx, 0x68(%esp)          0x4                              
0x9de8                           03D9             0x71        0x6e                          addl     %ecx, %ebx                0x1                              
0x9dea                           03F9             0x71        0x70                          addl     %ecx, %edi                0x1                              
0x9dec                           8B4C2414         0x71        0x6a                          movl     0x14(%esp), %ecx          0x1                              
0x9df0                           85ED             0x71        0x6e                          testl    %ebp, %ebp                0x1                              
0x9df2                           0F8C5E020000     0x71        0x70                          jnge     dpframe_estimate+3fe      0x1                              0x3
0x9df8  dpframe_estimate+1a0:    8B542450         0x71        0x6a                          movl     0x50(%esp), %edx          0x1                              
0x9dfc                           8D5412E0         0x71        0x6e                          leal     -32(%edx, %edx, 1), %edx  0x1                              
0x9e00                           3BEA             0x72        0x70                          cmpl     %edx, %ebp                0x1                              
0x9e02                           0F8F4E020000     0x72                                      jg       dpframe_estimate+3fe      0x1                              0x3
0x9e08  dpframe_estimate+1b0:    85DB             0x72        0x6a                          testl    %ebx, %ebx                0x1                              
0x9e0a                           0F8C46020000     0x72        0x70                          jnge     dpframe_estimate+3fe      0x1                              0x3
0x9e10  dpframe_estimate+1b8:    8B1590930C08     0x72        0x6a                          movl     0x80c9390, %edx           0x1                              
0x9e16                           83C2F0           0x72        0x6e                          addl     $-16, %edx                0x1                              
0x9e19                           3BDA             0x72        0x70                          cmpl     %edx, %ebx                0x1                              
0x9e1b                           0F8F35020000     0x72                                      jg       dpframe_estimate+3fe      0x1                              0x3
0x9e21  dpframe_estimate+1c9:    83442468FF       0x71                                      addl     $-1, 0x68(%esp)           0x4                              
0x9e26                           8974241C         0x71        0x6a                          movl     %esi, 0x1c(%esp)          0x2                              
0x9e2a                           8B742468         0x71        0x70                          movl     0x68(%esp), %esi          0x1                              
0x9e2e                           895C2444         0x71                                      movl     %ebx, 0x44(%esp)          0x2                              
0x9e32                           896C2448         0x71        0x6a                          movl     %ebp, 0x48(%esp)          0x2                              
0x9e36                           BAFFFFFFFF       0x71        0x70                          movl     $-1, %edx                 0x1                              
0x9e3b                           894C2414         0x71        0x6a                          movl     %ecx, 0x14(%esp)          0x2                              
0x9e3f                           8B4C2418         0x71        0x6e                          movl     0x18(%esp), %ecx          0x1                              
0x9e43                           83C7FF           0x72        0x70                          addl     $-1, %edi                 0x1                              
0x9e46                           8BC7             0x72        0x6a                          movl     %edi, %eax                0x1                              
0x9e48  dpframe_estimate+1f0:    8B6C241C         0x72        0x70                          movl     0x1c(%esp), %ebp          0x1                              
0x9e4c                           89442464         0x72                                      movl     %eax, 0x64(%esp)          0x2                              
0x9e50                           89542420         0x72        0x6a                          movl     %edx, 0x20(%esp)          0x2                              
0x9e54                           BBFFFFFFFF       0x72        0x6e                          movl     $-1, %ebx                 0x1                              
0x9e59                           8B542450         0x72        0x70                          movl     0x50(%esp), %edx          0x1                              
0x9e5d                           8D79FF           0x72        0x6a                          leal     -1(%ecx), %edi            0x1                              
0x9e60                           8D6DFF           0x71        0x6e                          leal     -1(%ebp), %ebp            0x1                              
0x9e63  dpframe_estimate+20b:    85FF             0x71        0x70                          testl    %edi, %edi                0x1                              
0x9e65                           0F8CB3010000     0x71                                      jnge     dpframe_estimate+3c6      0x1                              0x3
0x9e6b  dpframe_estimate+213:    8D4C12E0         0x71        0x6a                          leal     -32(%edx, %edx, 1), %ecx  0x1                              
0x9e6f                           3BF9             0x71        0x6e                          cmpl     %ecx, %edi                0x1                              
0x9e71                           0F8FA7010000     0x71        0x70                          jg       dpframe_estimate+3c6      0x1                              0x3
0x9e77  dpframe_estimate+21f:    85F6             0x71        0x6a                          testl    %esi, %esi                0x1                              
0x9e79                           0F8C9F010000     0x71        0x70                          jnge     dpframe_estimate+3c6      0x1                              0x3
0x9e7f  dpframe_estimate+227:    A190930C08       0x71        0x6a                          movl     0x80c9390, %eax           0x1                              
0x9e84                           83C0F0           0x72        0x6e                          addl     $-16, %eax                0x1                              
0x9e87                           3BF0             0x72        0x70                          cmpl     %eax, %esi                0x1                              
0x9e89                           0F8F8F010000     0x72                                      jg       dpframe_estimate+3c6      0x1                              0x3
0x9e8f  dpframe_estimate+237:    85ED             0x72        0x6a                          testl    %ebp, %ebp                0x1                              
0x9e91                           0F8C87010000     0x72        0x70                          jnge     dpframe_estimate+3c6      0x1                              0x3
0x9e97  dpframe_estimate+23f:    3BE9             0x72        0x6a                          cmpl     %ecx, %ebp                0x1                              
0x9e99                           0F8F7F010000     0x72        0x70                          jg       dpframe_estimate+3c6      0x1                              0x3
0x9e9f  dpframe_estimate+247:    8B4C2464         0x72        0x6a                          movl     0x64(%esp), %ecx          0x1                              
0x9ea3                           85C9             0x71        0x6e                          testl    %ecx, %ecx                0x1                              
0x9ea5                           0F8C73010000     0x71        0x70                          jnge     dpframe_estimate+3c6      0x1                              0x3
0x9eab  dpframe_estimate+253:    3BC8             0x71        0x6a                          cmpl     %eax, %ecx                0x1                              
0x9ead                           0F8F6B010000     0x71        0x70                          jg       dpframe_estimate+3c6      0x1                              0x3
0x9eb3  dpframe_estimate+25b:    89742468         0x71                                      movl     %esi, 0x68(%esp)          0x2                              
0x9eb7                           895C246C         0x71        0x6a                          movl     %ebx, 0x6c(%esp)          0x2                              
0x9ebb                           8B5C2448         0x71        0x70                          movl     0x48(%esp), %ebx          0x1                              
0x9ebf                           896C2470         0x71        0x6a                          movl     %ebp, 0x70(%esp)          0x2                              
0x9ec3                           8B6C2444         0x72        0x6e                          movl     0x44(%esp), %ebp          0x1                              
0x9ec7                           8D0412           0x72        0x70                          leal     (%edx, %edx, 1), %eax     0x1                              
0x9eca                           8BCB             0x72        0x6a                          movl     %ebx, %ecx                0x1                              
0x9ecc                           D1F9             0x72        0x70                          sarl     0x1, %ecx                 0x1                              
0x9ece                           894C2454         0x72        0x6a                          movl     %ecx, 0x54(%esp)          0x2                              
0x9ed2                           8BF5             0x72        0x6e                          movl     %ebp, %esi                0x1                              
0x9ed4                           D1FE             0x72        0x70                          sarl     0x1, %esi                 0x1                              
0x9ed6                           89742458         0x72        0x6a                          movl     %esi, 0x58(%esp)          0x2                              
0x9eda                           83E301           0x72        0x70                          andl     $0x1, %ebx                0x1                              
0x9edd                           895C2460         0x72        0x6a                          movl     %ebx, 0x60(%esp)          0x2                              
0x9ee1                           8B9C248C000000   0x71        0x6e                          movl     0x8c(%esp), %ebx          0x1                              
0x9ee8                           83E501           0x71        0x70                          andl     $0x1, %ebp                0x1                              
0x9eeb                           8D0C0B           0x71                                      leal     (%ebx, %ecx, 1), %ecx     0x1                              
0x9eee                           896C245C         0x71        0x6a                          movl     %ebp, 0x5c(%esp)          0x2                              
0x9ef2                           8BE8             0x71        0x6e                          movl     %eax, %ebp                0x1                              
0x9ef4                           0FAFEE           0x71        0x70                          imull    %esi, %ebp                0x1                              
0x9ef7                           8B742468         0x71                                      movl     0x68(%esp), %esi          0x1                              
0x9efb                           6A08             0x71        0x6a                          pushl    $0x8                      0x3                              
0x9efd                           03CD             0x71        0x6e                          addl     %ebp, %ecx                0x1                              
0x9eff                           03D3             0x71        0x70                          addl     %ebx, %edx                0x1                              
0x9f01                           8BEF             0x72        0x6a                          movl     %edi, %ebp                0x1                              
0x9f03                           D1FD             0x72        0x6e                          sarl     0x1, %ebp                 0x1                              
0x9f05                           8BDE             0x72        0x70                          movl     %esi, %ebx                0x1                              
0x9f07                           D1FB             0x72        0x6a                          sarl     0x1, %ebx                 0x1                              
0x9f09                           0FAFD8           0x72        0x6e                          imull    %eax, %ebx                0x1                              
0x9f0c                           03EB             0x72        0x70                          addl     %ebx, %ebp                0x1                              
0x9f0e                           03D5             0x72        0x6a                          addl     %ebp, %edx                0x1                              
0x9f10                           8BEF             0x72        0x6e                          movl     %edi, %ebp                0x1                              
0x9f12                           83E501           0x72        0x70                          andl     $0x1, %ebp                0x1                              
0x9f15                           8BDE             0x72        0x6a                          movl     %esi, %ebx                0x1                              
0x9f17                           83E301           0x72        0x70                          andl     $0x1, %ebx                0x1                              
0x9f1a                           53               0x72                                      pushl    %ebx                      0x3                              
0x9f1b                           55               0x72        0x6a                          pushl    %ebp                      0x3                              
0x9f1c                           8B5C2468         0x72        0x70                          movl     0x68(%esp), %ebx          0x1                              
0x9f20                           53               0x71        0x6a                          pushl    %ebx                      0x3                              
0x9f21                           8B5C2470         0x71        0x70                          movl     0x70(%esp), %ebx          0x1                              
0x9f25                           53               0x71                                      pushl    %ebx                      0x3                              
0x9f26                           50               0x71        0x6a                          pushl    %eax                      0x3                              
0x9f27                           8B8424A8000000   0x71        0x70                          movl     0xa8(%esp), %eax          0x1                              
0x9f2e                           50               0x71                                      pushl    %eax                      0x3                              
0x9f2f                           52               0x71                                      pushl    %edx                      0x3                              
0x9f30                           51               0x71        0x6a                          pushl    %ecx                      0x3                              
0x9f31                           8BAC2494000000   0x71        0x6e                          movl     0x94(%esp), %ebp          0x1                              
0x9f38                           8B9C2490000000   0x71        0x70                          movl     0x90(%esp), %ebx          0x1                              
0x9f3f                           E8C21D0000       0x71                                      call     bdist2                    0x4                              0x3
0x9f44  dpframe_estimate+2ec:    89442474         0x72        0x6a                          movl     %eax, 0x74(%esp)          0x2                              
0x9f48                           A198930C08       0x72        0x70                          movl     0x80c9398, %eax           0x1                              
0x9f4d                           89B4248C000000   0x72        0x6a                          movl     %esi, 0x8c(%esp)          0x2                              
0x9f54                           8BB424B0000000   0x72        0x6e                          movl     0xb0(%esp), %esi          0x1                              
0x9f5b                           8D1400           0x72        0x70                          leal     (%eax, %eax, 1), %edx     0x1                              
0x9f5e                           8D0C06           0x72                                      leal     (%esi, %eax, 1), %ecx     0x1                              
0x9f61                           038424B4000000   0x71                                      addl     0xb4(%esp), %eax          0x2                              
0x9f68                           899C2490000000   0x71        0x6a                          movl     %ebx, 0x90(%esp)          0x2                              
0x9f6f                           8B5C247C         0x71        0x6e                          movl     0x7c(%esp), %ebx          0x1                              
0x9f73                           0FAFDA           0x71        0x70                          imull    %edx, %ebx                0x1                              
0x9f76                           89BC2498000000   0x71        0x6a                          movl     %edi, 0x98(%esp)          0x2                              
0x9f7d                           8B7C2478         0x71        0x6e                          movl     0x78(%esp), %edi          0x1                              
0x9f81                           03FB             0x72        0x70                          addl     %ebx, %edi                0x1                              
0x9f83                           03CF             0x72        0x6a                          addl     %edi, %ecx                0x1                              
0x9f85                           8BDD             0x72        0x6e                          movl     %ebp, %ebx                0x1                              
0x9f87                           8BBC2488000000   0x72        0x70                          movl     0x88(%esp), %edi          0x1                              
0x9f8e                           6A08             0x72        0x6a                          pushl    $0x8                      0x3                              
0x9f90                           D1FB             0x72        0x6e                          sarl     0x1, %ebx                 0x1                              
0x9f92                           03DE             0x72        0x70                          addl     %esi, %ebx                0x1                              
0x9f94                           8BF7             0x72        0x6a                          movl     %edi, %esi                0x1                              
0x9f96                           D1FE             0x72        0x6e                          sarl     0x1, %esi                 0x1                              
0x9f98                           0FAFF2           0x72        0x70                          imull    %edx, %esi                0x1                              
0x9f9b                           83E701           0x72                                      andl     $0x1, %edi                0x1                              
0x9f9e                           57               0x72        0x6a                          pushl    %edi                      0x3                              
0x9f9f                           03DE             0x72        0x6e                          addl     %esi, %ebx                0x1                              
0x9fa1                           8BF5             0x71        0x70                          movl     %ebp, %esi                0x1                              
0x9fa3                           83E601           0x71                                      andl     $0x1, %esi                0x1                              
0x9fa6                           56               0x71        0x6a                          pushl    %esi                      0x3                              
0x9fa7                           8BB4248C000000   0x71        0x70                          movl     0x8c(%esp), %esi          0x1                              
0x9fae                           56               0x71        0x6a                          pushl    %esi                      0x3                              
0x9faf                           8BB42494000000   0x71        0x70                          movl     0x94(%esp), %esi          0x1                              
0x9fb6                           56               0x71                                      pushl    %esi                      0x3                              
0x9fb7                           52               0x71                                      pushl    %edx                      0x3                              
0x9fb8                           50               0x71                                      pushl    %eax                      0x3                              
0x9fb9                           53               0x71                                      pushl    %ebx                      0x3                              
0x9fba                           51               0x71        0x6a                          pushl    %ecx                      0x3                              
0x9fbb                           8BBC24BC000000   0x71        0x6e                          movl     0xbc(%esp), %edi          0x1                              
0x9fc2                           8B9C24B4000000   0x72        0x70                          movl     0xb4(%esp), %ebx          0x1                              
0x9fc9                           8BB424B0000000   0x72                                      movl     0xb0(%esp), %esi          0x1                              
0x9fd0                           E8311D0000       0x72        0x6a                          call     bdist2                    0x4                              0x3
0x9fd5  dpframe_estimate+37d:    83C448           0x72        0x70                          addl     $0x48, %esp               0x1                              
0x9fd8                           03442450         0x72        0x6a                          addl     0x50(%esp), %eax          0x2                              
0x9fdc                           8B1598930C08     0x72        0x6e                          movl     0x80c9398, %edx           0x1                              
0x9fe2                           8B4C244C         0x71        0x70                          movl     0x4c(%esp), %ecx          0x1                              
0x9fe6                           3BC1             0x71        0x6a                          cmpl     %ecx, %eax                0x1                              
0x9fe8                           7D34             0x71        0x70                          jge      dpframe_estimate+3c6      0x1                              0x3
0x9fea  dpframe_estimate+392:    8B4C2448         0x71                                      movl     0x48(%esp), %ecx          0x1                              
0x9fee                           894C2424         0x71        0x6a                          movl     %ecx, 0x24(%esp)          0x2                              
0x9ff2                           8B4C2444         0x71        0x70                          movl     0x44(%esp), %ecx          0x1                              
0x9ff6                           894C2428         0x71        0x6a                          movl     %ecx, 0x28(%esp)          0x2                              
0x9ffa                           8B4C2464         0x71        0x70                          movl     0x64(%esp), %ecx          0x1                              
0x9ffe                           897C242C         0x71                                      movl     %edi, 0x2c(%esp)          0x2                              
0xa002                           89742430         0x72                                      movl     %esi, 0x30(%esp)          0x2                              
0xa006                           896C2440         0x72                                      movl     %ebp, 0x40(%esp)          0x2                              
0xa00a                           894C243C         0x72        0x6a                          movl     %ecx, 0x3c(%esp)          0x2                              
0xa00e                           8B4C2420         0x72        0x70                          movl     0x20(%esp), %ecx          0x1                              
0xa012                           895C2438         0x72                                      movl     %ebx, 0x38(%esp)          0x2                              
0xa016                           894C2434         0x72                                      movl     %ecx, 0x34(%esp)          0x2                              
0xa01a                           8944244C         0x72        0x6a                          movl     %eax, 0x4c(%esp)          0x2                              
0xa01e  dpframe_estimate+3c6:    83C701           0x72        0x6e                          addl     $0x1, %edi                0x1                              
0xa021                           83C501           0x71        0x70                          addl     $0x1, %ebp                0x1                              
0xa024                           83C301           0x71        0x6a                          addl     $0x1, %ebx                0x1                              
0xa027                           83FB01           0x71        0x6e                          cmpl     $0x1, %ebx                0x1                              
0xa02a                           0F8E33FEFFFF     0x71        0x70                          jle      dpframe_estimate+20b      0x1                              0x3
0xa030  dpframe_estimate+3d8:    8B442464         0x71        0x6a                          movl     0x64(%esp), %eax          0x1                              
0xa034                           8B4C2418         0x71        0x70                          movl     0x18(%esp), %ecx          0x1                              
0xa038                           89542450         0x71        0x6a                          movl     %edx, 0x50(%esp)          0x2                              
0xa03c                           8B542420         0x71        0x6e                          movl     0x20(%esp), %edx          0x1                              
0xa040                           83C601           0x72        0x70                          addl     $0x1, %esi                0x1                              
0xa043                           83C001           0x72        0x6a                          addl     $0x1, %eax                0x1                              
0xa046                           83C201           0x72        0x6e                          addl     $0x1, %edx                0x1                              
0xa049                           83FA01           0x72        0x70                          cmpl     $0x1, %edx                0x1                              
0xa04c                           0F8EF6FDFFFF     0x72                                      jle      dpframe_estimate+1f0      0x1                              0x3
0xa052  dpframe_estimate+3fa:    8B4C2414         0x72        0x6a                          movl     0x14(%esp), %ecx          0x1                              
0xa056  dpframe_estimate+3fe:    83C101           0x72        0x6e                          addl     $0x1, %ecx                0x1                              
0xa059                           83F902           0x72        0x70                          cmpl     $0x2, %ecx                0x1                              
0xa05c                           0F8C6AFCFFFF     0x72                                      jnge     dpframe_estimate+74       0x1                              0x3
0xa062  dpframe_estimate+40a:    8B442408         0x71        0x6a                          movl     0x8(%esp), %eax           0x1                              
0xa066                           8B742404         0x71        0x6e                          movl     0x4(%esp), %esi           0x1                              
0xa06a                           8B1424           0x71        0x70                          movl     (%esp), %edx              0x1                              
0xa06d                           83C208           0x71        0x6a                          addl     $0x8, %edx                0x1                              
0xa070                           83C608           0x71        0x6e                          addl     $0x8, %esi                0x1                              
0xa073                           83C001           0x71        0x70                          addl     $0x1, %eax                0x1                              
0xa076                           83F802           0x71        0x6a                          cmpl     $0x2, %eax                0x1                              
0xa079                           0F8C40FCFFFF     0x71        0x70                          jnge     dpframe_estimate+67       0x1                              0x3
0xa07f  dpframe_estimate+427:    8B5C2450         0x71        0x6a                          movl     0x50(%esp), %ebx          0x1                              
0xa083                           8B4C242C         0x72        0x6e                          movl     0x2c(%esp), %ecx          0x1                              
0xa087                           8B742424         0x72        0x70                          movl     0x24(%esp), %esi          0x1                              
0xa08b                           8B7C2428         0x72        0x6a                          movl     0x28(%esp), %edi          0x1                              
0xa08f                           8BEE             0x72        0x6e                          movl     %esi, %ebp                0x1                              
0xa091                           D1FD             0x72        0x70                          sarl     0x1, %ebp                 0x1                              
0xa093                           896C2464         0x72        0x6a                          movl     %ebp, 0x64(%esp)          0x2                              
0xa097                           8D041B           0x72        0x6e                          leal     (%ebx, %ebx, 1), %eax     0x1                              
0xa09a                           8BD7             0x72        0x70                          movl     %edi, %edx                0x1                              
0xa09c                           D1FA             0x72                                      sarl     0x1, %edx                 0x1                              
0xa09e                           89542468         0x72        0x6a                          movl     %edx, 0x68(%esp)          0x2                              
0xa0a2                           83E601           0x71        0x70                          andl     $0x1, %esi                0x1                              
0xa0a5                           89742460         0x71        0x6a                          movl     %esi, 0x60(%esp)          0x2                              
0xa0a9                           8BB4248C000000   0x71        0x6e                          movl     0x8c(%esp), %esi          0x1                              
0xa0b0                           83E701           0x71        0x70                          andl     $0x1, %edi                0x1                              
0xa0b3                           897C245C         0x71        0x6a                          movl     %edi, 0x5c(%esp)          0x2                              
0xa0b7                           8D2C2E           0x71        0x6e                          leal     (%esi, %ebp, 1), %ebp     0x1                              
0xa0ba                           8BF8             0x71        0x70                          movl     %eax, %edi                0x1                              
0xa0bc                           0FAFFA           0x71        0x6a                          imull    %edx, %edi                0x1                              
0xa0bf                           03DE             0x71        0x6e                          addl     %esi, %ebx                0x1                              
0xa0c1                           8BF1             0x72        0x70                          movl     %ecx, %esi                0x1                              
0xa0c3                           03EF             0x72        0x6a                          addl     %edi, %ebp                0x1                              
0xa0c5                           8B7C2430         0x72        0x70                          movl     0x30(%esp), %edi          0x1                              
0xa0c9                           6A08             0x72        0x6a                          pushl    $0x8                      0x3                              
0xa0cb                           D1FE             0x72        0x6e                          sarl     0x1, %esi                 0x1                              
0xa0cd                           8BD7             0x72        0x70                          movl     %edi, %edx                0x1                              
0xa0cf                           D1FA             0x72        0x6a                          sarl     0x1, %edx                 0x1                              
0xa0d1                           0FAFD0           0x72        0x6e                          imull    %eax, %edx                0x1                              
0xa0d4                           83E101           0x72        0x70                          andl     $0x1, %ecx                0x1                              
0xa0d7                           83E701           0x72                                      andl     $0x1, %edi                0x1                              
0xa0da                           57               0x72                                      pushl    %edi                      0x3                              
0xa0db                           51               0x72        0x6a                          pushl    %ecx                      0x3                              
0xa0dc                           03F2             0x72        0x6e                          addl     %edx, %esi                0x1                              
0xa0de                           8B4C2468         0x72        0x70                          movl     0x68(%esp), %ecx          0x1                              
0xa0e2                           51               0x71        0x6a                          pushl    %ecx                      0x3                              
0xa0e3                           8B542470         0x71        0x6e                          movl     0x70(%esp), %edx          0x1                              
0xa0e7                           03DE             0x71        0x70                          addl     %esi, %ebx                0x1                              
0xa0e9                           52               0x71                                      pushl    %edx                      0x3                              
0xa0ea                           50               0x71        0x6a                          pushl    %eax                      0x3                              
0xa0eb                           8B8424A8000000   0x71        0x70                          movl     0xa8(%esp), %eax          0x1                              
0xa0f2                           50               0x71                                      pushl    %eax                      0x3                              
0xa0f3                           53               0x71                                      pushl    %ebx                      0x3                              
0xa0f4                           55               0x71                                      pushl    %ebp                      0x3                              
0xa0f5                           E8361A0000       0x71        0x6a                          call     bdist1                    0x4                              0x3
0xa0fa  dpframe_estimate+4a2:    8BD8             0x71        0x6e                          movl     %eax, %ebx                0x1                              
0xa0fc                           8B2D98930C08     0x71        0x70                          movl     0x80c9398, %ebp           0x1                              
0xa102                           8BBC248C000000   0x72        0x6a                          movl     0x8c(%esp), %edi          0x1                              
0xa109                           8B842488000000   0x72        0x70                          movl     0x88(%esp), %eax          0x1                              
0xa110                           899C2498000000   0x72        0x6a                          movl     %ebx, 0x98(%esp)          0x2                              
0xa117                           8D742D00         0x72        0x6e                          leal     (%ebp, %ebp, 1), %esi     0x1                              
0xa11b                           0FAFFE           0x72        0x70                          imull    %esi, %edi                0x1                              
0xa11e                           03C7             0x72        0x6a                          addl     %edi, %eax                0x1                              
0xa120                           8B9C24B0000000   0x71        0x6e                          movl     0xb0(%esp), %ebx          0x1                              
0xa127                           8B7C2460         0x71        0x70                          movl     0x60(%esp), %edi          0x1                              
0xa12b                           8D0C2B           0x71                                      leal     (%ebx, %ebp, 1), %ecx     0x1                              
0xa12e                           03AC24B4000000   0x71        0x6a                          addl     0xb4(%esp), %ebp          0x2                              
0xa135                           03C8             0x71        0x6e                          addl     %eax, %ecx                0x1                              
0xa137                           8B442464         0x71        0x70                          movl     0x64(%esp), %eax          0x1                              
0xa13b                           6A08             0x71        0x6a                          pushl    $0x8                      0x3                              
0xa13d                           8BD0             0x71        0x6e                          movl     %eax, %edx                0x1                              
0xa13f                           D1FA             0x71        0x70                          sarl     0x1, %edx                 0x1                              
0xa141                           03D3             0x72        0x6a                          addl     %ebx, %edx                0x1                              
0xa143                           8BDF             0x72        0x6e                          movl     %edi, %ebx                0x1                              
0xa145                           D1FB             0x72        0x70                          sarl     0x1, %ebx                 0x1                              
0xa147                           0FAFDE           0x72        0x6a                          imull    %esi, %ebx                0x1                              
0xa14a                           83E001           0x72        0x6e                          andl     $0x1, %eax                0x1                              
0xa14d                           83E701           0x72        0x70                          andl     $0x1, %edi                0x1                              
0xa150                           57               0x72                                      pushl    %edi                      0x3                              
0xa151                           50               0x72        0x6a                          pushl    %eax                      0x3                              
0xa152                           03D3             0x72        0x6e                          addl     %ebx, %edx                0x1                              
0xa154                           8B84248C000000   0x72        0x70                          movl     0x8c(%esp), %eax          0x1                              
0xa15b                           50               0x72        0x6a                          pushl    %eax                      0x3                              
0xa15c                           8B842494000000   0x72        0x70                          movl     0x94(%esp), %eax          0x1                              
0xa163                           50               0x71                                      pushl    %eax                      0x3                              
0xa164                           56               0x71                                      pushl    %esi                      0x3                              
0xa165                           55               0x71                                      pushl    %ebp                      0x3                              
0xa166                           52               0x71                                      pushl    %edx                      0x3                              
0xa167                           51               0x71        0x6a                          pushl    %ecx                      0x3                              
0xa168                           8B9C24BC000000   0x71        0x70                          movl     0xbc(%esp), %ebx          0x1                              
0xa16f                           E8BC190000       0x71        0x6a                          call     bdist1                    0x4                              0x3
0xa174  dpframe_estimate+51c:    8B9424FC000000   0x71        0x6e                          movl     0xfc(%esp), %edx          0x1                              
0xa17b                           8B8C24EC000000   0x71        0x70                          movl     0xec(%esp), %ecx          0x1                              
0xa182                           8BAC24F0000000   0x72        0x6a                          movl     0xf0(%esp), %ebp          0x1                              
0xa189                           8BBC24F4000000   0x72        0x6e                          movl     0xf4(%esp), %edi          0x1                              
0xa190                           03C3             0x72        0x70                          addl     %ebx, %eax                0x1                              
0xa192                           8B5C2470         0x72        0x6a                          movl     0x70(%esp), %ebx          0x1                              
0xa196                           8BB42480000000   0x72        0x70                          movl     0x80(%esp), %esi          0x1                              
0xa19d                           8902             0x72        0x6a                          movl     %eax, (%edx)              0x2                              
0xa19f                           8B44246C         0x72        0x6e                          movl     0x6c(%esp), %eax          0x1                              
0xa1a3                           8B9424F8000000   0x71        0x70                          movl     0xf8(%esp), %edx          0x1                              
0xa1aa                           8901             0x71        0x6a                          movl     %eax, (%ecx)              0x2                              
0xa1ac                           8B44247C         0x71        0x70                          movl     0x7c(%esp), %eax          0x1                              
0xa1b0                           895D00           0x71                                      movl     %ebx, (%ebp)              0x2                              
0xa1b3                           8937             0x71                                      movl     %esi, (%edi)              0x2                              
0xa1b5                           8902             0x71        0x6a                          movl     %eax, (%edx)              0x2                              
0xa1b7                           8B942400010000   0x71        0x6e                          movl     0x100(%esp), %edx         0x1                              
0xa1be                           8B842494000000   0x71        0x70                          movl     0x94(%esp), %eax          0x1                              
0xa1c5                           8902             0x72        0x6a                          movl     %eax, (%edx)              0x2                              
0xa1c7                           81C4C0000000     0x72        0x70                          addl     $0xc0, %esp               0x1                              
0xa1cd                           5B               0x72                                      popl     %ebx                      0x2                              
0xa1ce                           5D               0x72                                      popl     %ebp                      0x2                              
0xa1cf                           5E               0x72                                      popl     %esi                      0x2                              
0xa1d0                           5F               0x72                                      popl     %edi                      0x2                              
0xa1d1                           C3               0x72        0x6a                          ret                                0x4                              
0xa1d2  dpframe_estimate+57a:    B856555555       0x72        0x6e                          movl     $0x55555556, %eax         0x1                              
0xa1d7                           F7DB             0x72        0x70                          negl     %ebx                      0x1                              
0xa1d9                           83C301           0x72                                      addl     $0x1, %ebx                0x1                              
0xa1dc                           F7EB             0x72        0x6a                          imull    %ebx                      0x3                              
0xa1de                           C1FB1F           0x72        0x6e                          sarl     $0x1f, %ebx               0x1                              
0xa1e1                           2BD3             0x71        0x70                          subl     %ebx, %edx                0x1                              
0xa1e3                           8BDA             0x71        0x6a                          movl     %edx, %ebx                0x1                              
0xa1e5                           F7DB             0x71        0x6e                          negl     %ebx                      0x1                              
0xa1e7                           E95CFBFFFF       0x71        0x70                          jmp      dpframe_estimate+f0       0x1                              0x3
0xa1ec  dpframe_estimate+594:    B856555555       0x71        0x6a                          movl     $0x55555556, %eax         0x1                              
0xa1f1                           F7DD             0x71        0x6e                          negl     %ebp                      0x1                              
0xa1f3                           83C501           0x71        0x70                          addl     $0x1, %ebp                0x1                              
0xa1f6                           F7ED             0x71        0x6a                          imull    %ebp                      0x3                              
0xa1f8                           C1FD1F           0x71        0x6e                          sarl     $0x1f, %ebp               0x1                              
0xa1fb                           2BD5             0x71        0x70                          subl     %ebp, %edx                0x1                              
0xa1fd                           8BEA             0x71        0x6a                          movl     %edx, %ebp                0x1                              
0xa1ff                           F7DD             0x71        0x6e                          negl     %ebp                      0x1                              
0xa201                           E91EFBFFFF       0x72        0x70                          jmp      dpframe_estimate+cc       0x1                              0x3
0xa206  dpfield_estimate:        57               0x72                                      pushl    %edi                      0x3                              
0xa207                           56               0x72                                      pushl    %esi                      0x3                              
0xa208                           55               0x72                                      pushl    %ebp                      0x3                              
0xa209                           53               0x72        0x6a                          pushl    %ebx                      0x3                              
0xa20a                           83EC3C           0x72        0x6e                          subl     $0x3c, %esp               0x1                              
0xa20d                           8B442450         0x72        0x70                          movl     0x50(%esp), %eax          0x1                              
0xa211                           8B5C245C         0x72        0x6a                          movl     0x5c(%esp), %ebx          0x1                              
0xa215                           8B542460         0x72        0x6e                          movl     0x60(%esp), %edx          0x1                              
0xa219                           8B3D9C930C08     0x72        0x70                          movl     0x80c939c, %edi           0x1                              
0xa21f                           83FF01           0x72        0x6a                          cmpl     $0x1, %edi                0x1                              
0xa222                           0F841C020000     0x71        0x70                          je       dpfield_estimate+23e      0x1                              0x3
0xa228  dpfield_estimate+22:     8B4C2454         0x71                                      movl     0x54(%esp), %ecx          0x1                              
0xa22c                           894C2418         0x71        0x6a                          movl     %ecx, 0x18(%esp)          0x2                              
0xa230  dpfield_estimate+2a:     8B6C2468         0x71        0x6e                          movl     0x68(%esp), %ebp          0x1                              
0xa234                           8D341B           0x71        0x70                          leal     (%ebx, %ebx, 1), %esi     0x1                              
0xa237                           8B5C2464         0x71                                      movl     0x64(%esp), %ebx          0x1                              
0xa23b                           893424           0x71        0x6a                          movl     %esi, (%esp)              0x2                              
0xa23e                           2BDE             0x71        0x6e                          subl     %esi, %ebx                0x1                              
0xa240                           8D3412           0x72        0x70                          leal     (%edx, %edx, 1), %esi     0x1                              
0xa243                           2BEE             0x72        0x6a                          subl     %esi, %ebp                0x1                              
0xa245                           85DB             0x72        0x6e                          testl    %ebx, %ebx                0x1                              
0xa247                           BA00000000       0x72        0x70                          movl     $0x0, %edx                0x1                              
0xa24c                           0F9FC2           0x72        0x6a                          setg     %dl                       0x1                              
0xa24f                           85ED             0x72        0x6e                          testl    %ebp, %ebp                0x1                              
0xa251                           B900000000       0x72        0x70                          movl     $0x0, %ecx                0x1                              
0xa256                           0F9FC1           0x72        0x6a                          setg     %cl                       0x1                              
0xa259                           03DA             0x72        0x6e          0x66            addl     %edx, %ebx                0x1   Partial_Register_Stall:edx 
0xa25b                           D1FB             0x72        0x70                          sarl     0x1, %ebx                 0x1                              
0xa25d                           03E9             0x72        0x6a          0x66            addl     %ecx, %ebp                0x1   Partial_Register_Stall:ecx 
0xa25f                           D1FD             0x72        0x6e                          sarl     0x1, %ebp                 0x1                              
0xa261                           83FF01           0x71        0x70                          cmpl     $0x1, %edi                0x1                              
0xa264                           0F84D2010000     0x71                                      je       dpfield_estimate+236      0x1                              0x3
0xa26a  dpfield_estimate+64:     83C501           0x71        0x6a                          addl     $0x1, %ebp                0x1                              
0xa26d  dpfield_estimate+67:     8B4C2464         0x71        0x6e                          movl     0x64(%esp), %ecx          0x1                              
0xa271                           BF00000040       0x71        0x70                          movl     $0x40000000, %edi         0x1                              
0xa276                           897C2434         0x71        0x6a                          movl     %edi, 0x34(%esp)          0x2                              
0xa27a                           BAFFFFFFFF       0x71        0x70                          movl     $-1, %edx                 0x1                              
0xa27f                           89542408         0x71                                      movl     %edx, 0x8(%esp)           0x2                              
0xa283                           89542424         0x72                                      movl     %edx, 0x24(%esp)          0x2                              
0xa287                           89442410         0x72        0x6a                          movl     %eax, 0x10(%esp)          0x2                              
0xa28b                           8B0424           0x72        0x6e                          movl     (%esp), %eax              0x1                              
0xa28e                           8D6C35FF         0x72        0x70                          leal     -1(%ebp, %esi, 1), %ebp   0x1                              
0xa292                           89542430         0x72                                      movl     %edx, 0x30(%esp)          0x2                              
0xa296                           89542428         0x72                                      movl     %edx, 0x28(%esp)          0x2                              
0xa29a                           8954242C         0x72        0x6a                          movl     %edx, 0x2c(%esp)          0x2                              
0xa29e                           8BD1             0x72        0x6e                          movl     %ecx, %edx                0x1                              
0xa2a0                           D1FA             0x71        0x70                          sarl     0x1, %edx                 0x1                              
0xa2a2                           89542414         0x71        0x6a                          movl     %edx, 0x14(%esp)          0x2                              
0xa2a6                           8B542468         0x71        0x6e                          movl     0x68(%esp), %edx          0x1                              
0xa2aa                           8B742414         0x71        0x70                          movl     0x14(%esp), %esi          0x1                              
0xa2ae                           89742414         0x71        0x6a                          movl     %esi, 0x14(%esp)          0x2                              
0xa2b2                           8BFA             0x71        0x6e                          movl     %edx, %edi                0x1                              
0xa2b4                           D1FF             0x71        0x70                          sarl     0x1, %edi                 0x1                              
0xa2b6                           897C240C         0x71        0x6a                          movl     %edi, 0xc(%esp)           0x2                              
0xa2ba                           83E101           0x71        0x70                          andl     $0x1, %ecx                0x1                              
0xa2bd                           894C2420         0x71        0x6a                          movl     %ecx, 0x20(%esp)          0x2                              
0xa2c1                           83E201           0x72        0x6e                          andl     $0x1, %edx                0x1                              
0xa2c4                           8B4C242C         0x72        0x70                          movl     0x2c(%esp), %ecx          0x1                              
0xa2c8                           8954241C         0x72        0x6a                          movl     %edx, 0x1c(%esp)          0x2                              
0xa2cc                           8B542408         0x72        0x70                          movl     0x8(%esp), %edx           0x1                              
0xa2d0                           894C242C         0x72                                      movl     %ecx, 0x2c(%esp)          0x2                              
0xa2d4  dpfield_estimate+ce:     89542408         0x72                                      movl     %edx, 0x8(%esp)           0x2                              
0xa2d8                           895C2404         0x72        0x6a                          movl     %ebx, 0x4(%esp)           0x2                              
0xa2dc                           BFFFFFFFFF       0x72        0x6e                          movl     $-1, %edi                 0x1                              
0xa2e1                           8D7418FF         0x71        0x70                          leal     -1(%eax, %ebx, 1), %esi   0x1                              
0xa2e5  dpfield_estimate+df:     85F6             0x71        0x6a                          testl    %esi, %esi                0x1                              
0xa2e7                           0F8C9A000000     0x71        0x70                          jnge     dpfield_estimate+181      0x1                              0x3
0xa2ed  dpfield_estimate+e7:     A198930C08       0x71        0x6a                          movl     0x80c9398, %eax           0x1                              
0xa2f2                           8D5400E0         0x71        0x6e                          leal     -32(%eax, %eax, 1), %edx  0x1                              
0xa2f6                           3BF2             0x71        0x70                          cmpl     %edx, %esi                0x1                              
0xa2f8                           0F8F89000000     0x71                                      jg       dpfield_estimate+181      0x1                              0x3
0xa2fe  dpfield_estimate+f8:     85ED             0x71        0x6a                          testl    %ebp, %ebp                0x1                              
0xa300                           0F8C81000000     0x72        0x70                          jnge     dpfield_estimate+181      0x1                              0x3
0xa306  dpfield_estimate+100:    A184890C08       0x72        0x6a                          movl     0x80c8984, %eax           0x1                              
0xa30b                           8D5400E0         0x72        0x6e                          leal     -32(%eax, %eax, 1), %edx  0x1                              
0xa30f                           3BEA             0x72        0x70                          cmpl     %edx, %ebp                0x1                              
0xa311                           7F74             0x72                                      jg       dpfield_estimate+181      0x1                              0x3
0xa313  dpfield_estimate+10d:    8B0D60920C08     0x72        0x6a                          movl     0x80c9260, %ecx           0x1                              
0xa319                           8B54240C         0x72        0x70                          movl     0xc(%esp), %edx           0x1                              
0xa31d                           89742438         0x72        0x6a                          movl     %esi, 0x38(%esp)          0x2                              
0xa321                           0FAFD1           0x71        0x6e                          imull    %ecx, %edx                0x1                              
0xa324                           8BC6             0x71        0x70                          movl     %esi, %eax                0x1                              
0xa326                           D1F8             0x71                                      sarl     0x1, %eax                 0x1                              
0xa328                           03542414         0x71        0x6a                          addl     0x14(%esp), %edx          0x2                              
0xa32c                           8BDD             0x71        0x70                          movl     %ebp, %ebx                0x1                              
0xa32e                           03542418         0x71                                      addl     0x18(%esp), %edx          0x2                              
0xa332                           03442410         0x71                                      addl     0x10(%esp), %eax          0x2                              
0xa336                           6A10             0x71        0x6a                          pushl    $0x10                     0x3                              
0xa338                           D1FB             0x71        0x6e                          sarl     0x1, %ebx                 0x1                              
0xa33a                           0FAFD9           0x71        0x70                          imull    %ecx, %ebx                0x1                              
0xa33d                           83E601           0x71        0x6a                          andl     $0x1, %esi                0x1                              
0xa340                           03C3             0x72        0x6e                          addl     %ebx, %eax                0x1                              
0xa342                           8BDD             0x72        0x70                          movl     %ebp, %ebx                0x1                              
0xa344                           83E301           0x72                                      andl     $0x1, %ebx                0x1                              
0xa347                           53               0x72                                      pushl    %ebx                      0x3                              
0xa348                           56               0x72        0x6a                          pushl    %esi                      0x3                              
0xa349                           8B5C2428         0x72        0x70                          movl     0x28(%esp), %ebx          0x1                              
0xa34d                           53               0x72        0x6a                          pushl    %ebx                      0x3                              
0xa34e                           8B5C2430         0x72        0x70                          movl     0x30(%esp), %ebx          0x1                              
0xa352                           53               0x72                                      pushl    %ebx                      0x3                              
0xa353                           51               0x72        0x6a                          pushl    %ecx                      0x3                              
0xa354                           8B4C2470         0x72        0x70                          movl     0x70(%esp), %ecx          0x1                              
0xa358                           51               0x72                                      pushl    %ecx                      0x3                              
0xa359                           50               0x72                                      pushl    %eax                      0x3                              
0xa35a                           52               0x72        0x6a                          pushl    %edx                      0x3                              
0xa35b                           8B74245C         0x72        0x70                          movl     0x5c(%esp), %esi          0x1                              
0xa35f                           E8A2190000       0x72        0x6a                          call     bdist2                    0x4                              0x3
0xa364  dpfield_estimate+15e:    83C424           0x71        0x6e                          addl     $0x24, %esp               0x1                              
0xa367                           8B542434         0x71        0x70                          movl     0x34(%esp), %edx          0x1                              
0xa36b                           3BC2             0x71        0x6a                          cmpl     %edx, %eax                0x1                              
0xa36d                           7D18             0x71        0x70                          jge      dpfield_estimate+181      0x1                              0x3
0xa36f  dpfield_estimate+169:    8B542408         0x71                                      movl     0x8(%esp), %edx           0x1                              
0xa373                           8974242C         0x71                                      movl     %esi, 0x2c(%esp)          0x2                              
0xa377                           896C2428         0x71                                      movl     %ebp, 0x28(%esp)          0x2                              
0xa37b                           897C2430         0x71                                      movl     %edi, 0x30(%esp)          0x2                              
0xa37f                           89542424         0x71                                      movl     %edx, 0x24(%esp)          0x2                              
0xa383                           89442434         0x72        0x6a                          movl     %eax, 0x34(%esp)          0x2                              
0xa387  dpfield_estimate+181:    83C601           0x72        0x6e                          addl     $0x1, %esi                0x1                              
0xa38a                           83C701           0x72        0x70                          addl     $0x1, %edi                0x1                              
0xa38d                           83FF01           0x72        0x6a                          cmpl     $0x1, %edi                0x1                              
0xa390                           0F8E4FFFFFFF     0x72        0x70                          jle      dpfield_estimate+df       0x1                              0x3
0xa396  dpfield_estimate+190:    8B542408         0x72        0x6a                          movl     0x8(%esp), %edx           0x1                              
0xa39a                           8B5C2404         0x72        0x6e                          movl     0x4(%esp), %ebx           0x1                              
0xa39e                           8B0424           0x72        0x70                          movl     (%esp), %eax              0x1                              
0xa3a1                           83C501           0x71        0x6a                          addl     $0x1, %ebp                0x1                              
0xa3a4                           83C201           0x71        0x6e                          addl     $0x1, %edx                0x1                              
0xa3a7                           83FA01           0x71        0x70                          cmpl     $0x1, %edx                0x1                              
0xa3aa                           0F8E24FFFFFF     0x71                                      jle      dpfield_estimate+ce       0x1                              0x3
0xa3b0  dpfield_estimate+1aa:    8B742414         0x71        0x6a                          movl     0x14(%esp), %esi          0x1                              
0xa3b4                           8B4C242C         0x71        0x6e                          movl     0x2c(%esp), %ecx          0x1                              
0xa3b8                           8B442410         0x71        0x70                          movl     0x10(%esp), %eax          0x1                              
0xa3bc                           8B1560920C08     0x71        0x6a                          movl     0x80c9260, %edx           0x1                              
0xa3c2                           8BE9             0x72        0x6e                          movl     %ecx, %ebp                0x1                              
0xa3c4                           D1FD             0x72        0x70                          sarl     0x1, %ebp                 0x1                              
0xa3c6                           8B5C240C         0x72        0x6a                          movl     0xc(%esp), %ebx           0x1                              
0xa3ca                           0FAFDA           0x72        0x6e                          imull    %edx, %ebx                0x1                              
0xa3cd                           03C5             0x72        0x70                          addl     %ebp, %eax                0x1                              
0xa3cf                           83E101           0x72        0x6a                          andl     $0x1, %ecx                0x1                              
0xa3d2                           03F3             0x72        0x70                          addl     %ebx, %esi                0x1                              
0xa3d4                           03742418         0x72        0x6a                          addl     0x18(%esp), %esi          0x2                              
0xa3d8                           8B5C2428         0x72        0x70                          movl     0x28(%esp), %ebx          0x1                              
0xa3dc                           6A10             0x72        0x6a                          pushl    $0x10                     0x3                              
0xa3de                           8BFB             0x72        0x6e                          movl     %ebx, %edi                0x1                              
0xa3e0                           D1FF             0x71        0x70                          sarl     0x1, %edi                 0x1                              
0xa3e2                           0FAFFA           0x71        0x6a                          imull    %edx, %edi                0x1                              
0xa3e5                           83E301           0x71        0x6e                          andl     $0x1, %ebx                0x1                              
0xa3e8                           03C7             0x71        0x70                          addl     %edi, %eax                0x1                              
0xa3ea                           53               0x71                                      pushl    %ebx                      0x3                              
0xa3eb                           51               0x71        0x6a                          pushl    %ecx                      0x3                              
0xa3ec                           8B4C2428         0x71        0x70                          movl     0x28(%esp), %ecx          0x1                              
0xa3f0                           51               0x71        0x6a                          pushl    %ecx                      0x3                              
0xa3f1                           8B4C2430         0x71        0x70                          movl     0x30(%esp), %ecx          0x1                              
0xa3f5                           51               0x71                                      pushl    %ecx                      0x3                              
0xa3f6                           52               0x71        0x6a                          pushl    %edx                      0x3                              
0xa3f7                           8B542470         0x71        0x70                          movl     0x70(%esp), %edx          0x1                              
0xa3fb                           52               0x71                                      pushl    %edx                      0x3                              
0xa3fc                           50               0x71                                      pushl    %eax                      0x3                              
0xa3fd                           56               0x71                                      pushl    %esi                      0x3                              
0xa3fe                           E82D170000       0x71        0x6a                          call     bdist1                    0x4                              0x3
0xa403  dpfield_estimate+1fd:    8B942498000000   0x72        0x6e                          movl     0x98(%esp), %edx          0x1                              
0xa40a                           8B8C2490000000   0x72        0x70                          movl     0x90(%esp), %ecx          0x1                              
0xa411                           8BAC2494000000   0x72        0x6a                          movl     0x94(%esp), %ebp          0x1                              
0xa418                           8B5C2448         0x72        0x6e                          movl     0x48(%esp), %ebx          0x1                              
0xa41c                           8BBC249C000000   0x72        0x70                          movl     0x9c(%esp), %edi          0x1                              
0xa423                           8B742458         0x71                                      movl     0x58(%esp), %esi          0x1                              
0xa427                           8902             0x71        0x6a                          movl     %eax, (%edx)              0x2                              
0xa429                           8B442454         0x71        0x70                          movl     0x54(%esp), %eax          0x1                              
0xa42d                           8901             0x71                                      movl     %eax, (%ecx)              0x2                              
0xa42f                           895D00           0x71                                      movl     %ebx, (%ebp)              0x2                              
0xa432                           8937             0x71        0x6a                          movl     %esi, (%edi)              0x2                              
0xa434                           83C460           0x71        0x70                          addl     $0x60, %esp               0x1                              
0xa437                           5B               0x71                                      popl     %ebx                      0x2                              
0xa438                           5D               0x71                                      popl     %ebp                      0x2                              
0xa439                           5E               0x71                                      popl     %esi                      0x2                              
0xa43a                           5F               0x71                                      popl     %edi                      0x2                              
0xa43b                           C3               0x71        0x6a                          ret                                0x4                              
0xa43c  dpfield_estimate+236:    83C5FF           0x71        0x6e                          addl     $-1, %ebp                 0x1                              
0xa43f                           E929FEFFFF       0x71        0x70                          jmp      dpfield_estimate+67       0x1                              0x3
0xa444  dpfield_estimate+23e:    89442418         0x72        0x6a                          movl     %eax, 0x18(%esp)          0x2                              
0xa448                           8B442454         0x72        0x6e                          movl     0x54(%esp), %eax          0x1                              
0xa44c                           E9DFFDFFFF       0x72        0x70                          jmp      dpfield_estimate+2a       0x1                              0x3
0xa451  dpfield_estimate+24b:    90               0x72                                      nop                                0x1                              
0xa452  fullsearch:              57               0x72                                      pushl    %edi                      0x3                              
0xa453                           56               0x72                                      pushl    %esi                      0x3                              
0xa454                           55               0x72                                      pushl    %ebp                      0x3                              
0xa455                           53               0x72        0x6a                          pushl    %ebx                      0x3                              
0xa456                           83EC40           0x72        0x6e                          subl     $0x40, %esp               0x1                              
0xa459                           8B742454         0x72        0x70                          movl     0x54(%esp), %esi          0x1                              
0xa45d                           8B44245C         0x72        0x6a                          movl     0x5c(%esp), %eax          0x1                              
0xa461                           8B542460         0x71        0x6e                          movl     0x60(%esp), %edx          0x1                              
0xa465                           8B6C2464         0x71        0x70                          movl     0x64(%esp), %ebp          0x1                              
0xa469                           8B5C2468         0x71        0x6a                          movl     0x68(%esp), %ebx          0x1                              
0xa46d                           8B4C2474         0x71        0x70                          movl     0x74(%esp), %ecx          0x1                              
0xa471                           6800000100       0x71                                      pushl    $0x10000                  0x3                              
0xa476                           51               0x71        0x6a                          pushl    %ecx                      0x3                              
0xa477                           8D3C2E           0x71        0x6e                          leal     (%esi, %ebp, 1), %edi     0x1                              
0xa47a                           8BF2             0x71        0x70                          movl     %edx, %esi                0x1                              
0xa47c                           0FAFF3           0x71        0x6a                          imull    %ebx, %esi                0x1                              
0xa47f                           03FE             0x71        0x6e                          addl     %esi, %edi                0x1                              
0xa481                           33F6             0x72        0x70                          xorl     %esi, %esi                0x1                              
0xa483                           56               0x72                                      pushl    %esi                      0x3                              
0xa484                           56               0x72                                      pushl    %esi                      0x3                              
0xa485                           52               0x72                                      pushl    %edx                      0x3                              
0xa486                           50               0x72                                      pushl    %eax                      0x3                              
0xa487                           57               0x72                                      pushl    %edi                      0x3                              
0xa488                           E82F070000       0x72        0x6a                          call     dist1                     0x4                              0x3
0xa48d  fullsearch+3b:           83C41C           0x72        0x6e                          addl     $0x1c, %esp               0x1                              
0xa490                           83F840           0x72        0x70                          cmpl     $0x40, %eax               0x1                              
0xa493                           0F8E8F030000     0x72                                      jle      fullsearch+3d6            0x1                              0x3
0xa499  fullsearch+47:           8B542464         0x72                                      movl     0x64(%esp), %edx          0x1                              
0xa49d                           895C2414         0x72        0x6a                          movl     %ebx, 0x14(%esp)          0x2                              
0xa4a1                           8B5C246C         0x71        0x6e                          movl     0x6c(%esp), %ebx          0x1                              
0xa4a5                           8BCA             0x71        0x70                          movl     %edx, %ecx                0x1                              
0xa4a7                           2BCB             0x71        0x6a                          subl     %ebx, %ecx                0x1                              
0xa4a9                           8D341A           0x71        0x6e                          leal     (%edx, %ebx, 1), %esi     0x1                              
0xa4ac                           33D2             0x71        0x70                          xorl     %edx, %edx                0x1                              
0xa4ae                           85C9             0x71        0x6a                          testl    %ecx, %ecx                0x1                              
0xa4b0                           BF00000000       0x71        0x6e                          movl     $0x0, %edi                0x1                              
0xa4b5                           7D02             0x71        0x70                          jge      fullsearch+67             0x1                              0x3
0xa4b7  fullsearch+65:           8BCA             0x71        0x6a                          movl     %edx, %ecx                0x1                              
0xa4b9  fullsearch+67:           8B542478         0x71        0x70                          movl     0x78(%esp), %edx          0x1                              
0xa4bd                           894C2430         0x71        0x6a                          movl     %ecx, 0x30(%esp)          0x2                              
0xa4c1                           8B4C2470         0x72        0x6e                          movl     0x70(%esp), %ecx          0x1                              
0xa4c5                           8D52F0           0x72        0x70                          leal     -16(%edx), %edx           0x1                              
0xa4c8                           8954240C         0x72        0x6a                          movl     %edx, 0xc(%esp)           0x2                              
0xa4cc                           3BD6             0x72        0x6e                          cmpl     %esi, %edx                0x1                              
0xa4ce                           7D02             0x72        0x70                          jge      fullsearch+80             0x1                              0x3
0xa4d0  fullsearch+7e:           8BF2             0x72                                      movl     %edx, %esi                0x1                              
0xa4d2  fullsearch+80:           89742428         0x72        0x6a                          movl     %esi, 0x28(%esp)          0x2                              
0xa4d6                           8B742468         0x72        0x6e                          movl     0x68(%esp), %esi          0x1                              
0xa4da                           8BD6             0x72        0x70                          movl     %esi, %edx                0x1                              
0xa4dc                           2BD1             0x72        0x6a                          subl     %ecx, %edx                0x1                              
0xa4de                           8D340E           0x72        0x6e                          leal     (%esi, %ecx, 1), %esi     0x1                              
0xa4e1                           85D2             0x71        0x70                          testl    %edx, %edx                0x1                              
0xa4e3                           7D02             0x71                                      jge      fullsearch+95             0x1                              0x3
0xa4e5  fullsearch+93:           8BD7             0x71                                      movl     %edi, %edx                0x1                              
0xa4e7  fullsearch+95:           89542424         0x71        0x6a                          movl     %edx, 0x24(%esp)          0x2                              
0xa4eb                           8B54247C         0x71        0x70                          movl     0x7c(%esp), %edx          0x1                              
0xa4ef                           2B542474         0x71        0x6a                          subl     0x74(%esp), %edx          0x2                              
0xa4f3                           3BD6             0x71        0x6e                          cmpl     %esi, %edx                0x1                              
0xa4f5                           8BFB             0x71        0x70                          movl     %ebx, %edi                0x1                              
0xa4f7                           7D02             0x71                                      jge      fullsearch+a9             0x1                              0x3
0xa4f9  fullsearch+a7:           8BF2             0x71        0x6a                          movl     %edx, %esi                0x1                              
0xa4fb  fullsearch+a9:           D1FF             0x71        0x6e                          sarl     0x1, %edi                 0x1                              
0xa4fd                           C1EF1E           0x71        0x70                          shrl     $0x1e, %edi               0x1                              
0xa500                           03FB             0x72        0x6a                          addl     %ebx, %edi                0x1                              
0xa502                           C1FF02           0x72        0x70                          sarl     $0x2, %edi                0x1                              
0xa505                           897C243C         0x72        0x6a                          movl     %edi, 0x3c(%esp)          0x2                              
0xa509                           8BD9             0x72        0x6e                          movl     %ecx, %ebx                0x1                              
0xa50b                           D1FB             0x72        0x70                          sarl     0x1, %ebx                 0x1                              
0xa50d                           C1EB1E           0x72        0x6a                          shrl     $0x1e, %ebx               0x1                              
0xa510                           03D9             0x72        0x6e                          addl     %ecx, %ebx                0x1                              
0xa512                           C1FB02           0x72        0x70                          sarl     $0x2, %ebx                0x1                              
0xa515                           895C2438         0x72        0x6a                          movl     %ebx, 0x38(%esp)          0x2                              
0xa519                           8B5C2414         0x72        0x6e                          movl     0x14(%esp), %ebx          0x1                              
0xa51d                           8BCF             0x72        0x70                          movl     %edi, %ecx                0x1                              
0xa51f                           F7D9             0x72        0x6a                          negl     %ecx                      0x1                              
0xa521                           3BCF             0x71        0x70                          cmpl     %edi, %ecx                0x1                              
0xa523                           890C24           0x71        0x6a                          movl     %ecx, (%esp)              0x2                              
0xa526                           8B4C240C         0x71        0x6e                          movl     0xc(%esp), %ecx           0x1                              
0xa52a                           0F8F0F010000     0x71        0x70                          jg       fullsearch+1ed            0x1                              0x3
0xa530  fullsearch+de:           8B7C2438         0x71                                      movl     0x38(%esp), %edi          0x1                              
0xa534                           895C2414         0x71                                      movl     %ebx, 0x14(%esp)          0x2                              
0xa538                           896C2418         0x71        0x6a                          movl     %ebp, 0x18(%esp)          0x2                              
0xa53c                           F7DF             0x71        0x70                          negl     %edi                      0x1                              
0xa53e                           897C2404         0x71        0x6a                          movl     %edi, 0x4(%esp)           0x2                              
0xa542                           8B3C24           0x72        0x70                          movl     (%esp), %edi              0x1                              
0xa545                           89542410         0x72        0x6a                          movl     %edx, 0x10(%esp)          0x2                              
0xa549                           8B542404         0x72        0x70                          movl     0x4(%esp), %edx           0x1                              
0xa54d                           894C240C         0x72        0x6a                          movl     %ecx, 0xc(%esp)           0x2                              
0xa551                           8BCF             0x72        0x6e                          movl     %edi, %ecx                0x1                              
0xa553                           8D3C3F           0x72        0x70                          leal     (%edi, %edi, 1), %edi     0x1                              
0xa556                           03FF             0x72                                      addl     %edi, %edi                0x1                              
0xa558                           897C2408         0x72        0x6a                          movl     %edi, 0x8(%esp)           0x2                              
0xa55c                           8B7C2438         0x72        0x70                          movl     0x38(%esp), %edi          0x1                              
0xa560                           89742420         0x71                                      movl     %esi, 0x20(%esp)          0x2                              
0xa564                           8944241C         0x71        0x6a                          movl     %eax, 0x1c(%esp)          0x2                              
0xa568                           8B442408         0x71        0x6e                          movl     0x8(%esp), %eax           0x1                              
0xa56c  fullsearch+11a:          8BF2             0x71        0x70                          movl     %edx, %esi                0x1                              
0xa56e                           3BD7             0x71        0x6a                          cmpl     %edi, %edx                0x1                              
0xa570                           0F8F9F000000     0x71        0x70                          jg       fullsearch+1c3            0x1                              0x3
0xa576  fullsearch+124:          8B5C2464         0x71                                      movl     0x64(%esp), %ebx          0x1                              
0xa57a                           89442408         0x71                                      movl     %eax, 0x8(%esp)           0x2                              
0xa57e                           890C24           0x71        0x6a                          movl     %ecx, (%esp)              0x2                              
0xa581                           8D1C03           0x72        0x70                          leal     (%ebx, %eax, 1), %ebx     0x1                              
0xa584                           895C242C         0x72        0x6a                          movl     %ebx, 0x2c(%esp)          0x2                              
0xa588                           8B5C2430         0x72        0x6e                          movl     0x30(%esp), %ebx          0x1                              
0xa58c                           8D2C36           0x72        0x70                          leal     (%esi, %esi, 1), %ebp     0x1                              
0xa58f                           03ED             0x72                                      addl     %ebp, %ebp                0x1                              
0xa591                           036C2468         0x72        0x6a                          addl     0x68(%esp), %ebp          0x2                              
0xa595  fullsearch+143:          8B44242C         0x72        0x6e                          movl     0x2c(%esp), %eax          0x1                              
0xa599                           3BC3             0x72        0x70                          cmpl     %ebx, %eax                0x1                              
0xa59b                           7C63             0x72                                      jnge     fullsearch+1ae            0x1                              0x3
0xa59d  fullsearch+14b:          8B542428         0x72        0x6a                          movl     0x28(%esp), %edx          0x1                              
0xa5a1                           3BC2             0x71        0x6e                          cmpl     %edx, %eax                0x1                              
0xa5a3                           7F5B             0x71        0x70                          jg       fullsearch+1ae            0x1                              0x3
0xa5a5  fullsearch+153:          8B442424         0x71        0x6a                          movl     0x24(%esp), %eax          0x1                              
0xa5a9                           3BE8             0x71        0x6e                          cmpl     %eax, %ebp                0x1                              
0xa5ab                           7C53             0x71        0x70                          jnge     fullsearch+1ae            0x1                              0x3
0xa5ad  fullsearch+15b:          8B442420         0x71        0x6a                          movl     0x20(%esp), %eax          0x1                              
0xa5b1                           3BE8             0x71        0x6e                          cmpl     %eax, %ebp                0x1                              
0xa5b3                           7F4B             0x71        0x70                          jg       fullsearch+1ae            0x1                              0x3
0xa5b5  fullsearch+163:          8B4C2454         0x71        0x6a                          movl     0x54(%esp), %ecx          0x1                              
0xa5b9                           8B44242C         0x71        0x6e                          movl     0x2c(%esp), %eax          0x1                              
0xa5bd                           8D1401           0x71        0x70                          leal     (%ecx, %eax, 1), %edx     0x1                              
0xa5c0                           8B442460         0x72        0x6a                          movl     0x60(%esp), %eax          0x1                              
0xa5c4                           8BC8             0x72        0x6e                          movl     %eax, %ecx                0x1                              
0xa5c6                           0FAFCD           0x72        0x70                          imull    %ebp, %ecx                0x1                              
0xa5c9                           03D1             0x72        0x6a                          addl     %ecx, %edx                0x1                              
0xa5cb                           8B4C241C         0x72        0x70                          movl     0x1c(%esp), %ecx          0x1                              
0xa5cf                           51               0x72        0x6a                          pushl    %ecx                      0x3                              
0xa5d0                           8B4C2478         0x72        0x70                          movl     0x78(%esp), %ecx          0x1                              
0xa5d4                           51               0x72        0x6a                          pushl    %ecx                      0x3                              
0xa5d5                           33C9             0x72        0x70                          xorl     %ecx, %ecx                0x1                              
0xa5d7                           51               0x72                                      pushl    %ecx                      0x3                              
0xa5d8                           51               0x72                                      pushl    %ecx                      0x3                              
0xa5d9                           50               0x72        0x6a                          pushl    %eax                      0x3                              
0xa5da                           8B442470         0x72        0x70                          movl     0x70(%esp), %eax          0x1                              
0xa5de                           50               0x72                                      pushl    %eax                      0x3                              
0xa5df                           52               0x72                                      pushl    %edx                      0x3                              
0xa5e0                           E8D7050000       0x71        0x6a                          call     dist1                     0x4                              0x3
0xa5e5  fullsearch+193:          83C41C           0x71        0x6e                          addl     $0x1c, %esp               0x1                              
0xa5e8                           8B54241C         0x71        0x70                          movl     0x1c(%esp), %edx          0x1                              
0xa5ec                           3BC2             0x71        0x6a                          cmpl     %edx, %eax                0x1                              
0xa5ee                           7D10             0x71        0x70                          jge      fullsearch+1ae            0x1                              0x3
0xa5f0  fullsearch+19e:          8B54242C         0x71                                      movl     0x2c(%esp), %edx          0x1                              
0xa5f4                           89542418         0x71                                      movl     %edx, 0x18(%esp)          0x2                              
0xa5f8                           896C2414         0x71                                      movl     %ebp, 0x14(%esp)          0x2                              
0xa5fc                           8944241C         0x71        0x6a                          movl     %eax, 0x1c(%esp)          0x2                              
0xa600  fullsearch+1ae:          83C504           0x72        0x6e                          addl     $0x4, %ebp                0x1                              
0xa603                           83C601           0x72        0x70                          addl     $0x1, %esi                0x1                              
0xa606                           3BF7             0x72        0x6a                          cmpl     %edi, %esi                0x1                              
0xa608                           7E8B             0x72        0x70                          jle      fullsearch+143            0x1                              0x3
0xa60a  fullsearch+1b8:          8B442408         0x72        0x6a                          movl     0x8(%esp), %eax           0x1                              
0xa60e                           8B542404         0x72        0x6e                          movl     0x4(%esp), %edx           0x1                              
0xa612                           8B0C24           0x72        0x70                          movl     (%esp), %ecx              0x1                              
0xa615  fullsearch+1c3:          8B5C243C         0x72        0x6a                          movl     0x3c(%esp), %ebx          0x1                              
0xa619                           83C004           0x72        0x6e                          addl     $0x4, %eax                0x1                              
0xa61c                           83C101           0x72        0x70                          addl     $0x1, %ecx                0x1                              
0xa61f                           3BCB             0x72        0x6a                          cmpl     %ebx, %ecx                0x1                              
0xa621                           0F8E45FFFFFF     0x71        0x70                          jle      fullsearch+11a            0x1                              0x3
0xa627  fullsearch+1d5:          8B5C2414         0x71        0x6a                          movl     0x14(%esp), %ebx          0x1                              
0xa62b                           8B6C2418         0x71        0x6e                          movl     0x18(%esp), %ebp          0x1                              
0xa62f                           8B542410         0x71        0x70                          movl     0x10(%esp), %edx          0x1                              
0xa633                           8B4C240C         0x71        0x6a                          movl     0xc(%esp), %ecx           0x1                              
0xa637                           8B742420         0x71        0x6e                          movl     0x20(%esp), %esi          0x1                              
0xa63b                           8B44241C         0x71        0x70                          movl     0x1c(%esp), %eax          0x1                              
0xa63f  fullsearch+1ed:          896C2434         0x71                                      movl     %ebp, 0x34(%esp)          0x2                              
0xa643                           895C2438         0x72                                      movl     %ebx, 0x38(%esp)          0x2                              
0xa647                           895C2414         0x72        0x6a                          movl     %ebx, 0x14(%esp)          0x2                              
0xa64b                           8B5C2438         0x72        0x70                          movl     0x38(%esp), %ebx          0x1                              
0xa64f                           896C2418         0x72        0x6a                          movl     %ebp, 0x18(%esp)          0x2                              
0xa653                           8B6C2434         0x72        0x70                          movl     0x34(%esp), %ebp          0x1                              
0xa657                           89542410         0x72                                      movl     %edx, 0x10(%esp)          0x2                              
0xa65b                           894C240C         0x72                                      movl     %ecx, 0xc(%esp)           0x2                              
0xa65f                           89742420         0x72                                      movl     %esi, 0x20(%esp)          0x2                              
0xa663                           8944241C         0x71        0x6a                          movl     %eax, 0x1c(%esp)          0x2                              
0xa667                           BF02000000       0x71        0x70                          movl     $0x2, %edi                0x1                              
0xa66c                           897C243C         0x71        0x6a                          movl     %edi, 0x3c(%esp)          0x2                              
0xa670                           8BF7             0x71        0x6e                          movl     %edi, %esi                0x1                              
0xa672                           8B7C2430         0x71        0x70                          movl     0x30(%esp), %edi          0x1                              
0xa676  fullsearch+224:          8BD5             0x71        0x6a                          movl     %ebp, %edx                0x1                              
0xa678                           2BD6             0x71        0x70                          subl     %esi, %edx                0x1                              
0xa67a                           891424           0x71        0x6a                          movl     %edx, (%esp)              0x2                              
0xa67d                           8BC3             0x71        0x6e                          movl     %ebx, %eax                0x1                              
0xa67f                           2BC6             0x71        0x70                          subl     %esi, %eax                0x1                              
0xa681                           3BD7             0x72                                      cmpl     %edi, %edx                0x1                              
0xa683                           8944242C         0x72        0x6a                          movl     %eax, 0x2c(%esp)          0x2                              
0xa687                           7C23             0x72        0x70                          jnge     fullsearch+25a            0x1                              0x3
0xa689  fullsearch+237:          8B542428         0x72        0x6a                          movl     0x28(%esp), %edx          0x1                              
0xa68d                           8B0424           0x72        0x6e                          movl     (%esp), %eax              0x1                              
0xa690                           3BC2             0x72        0x70                          cmpl     %edx, %eax                0x1                              
0xa692                           7F18             0x72                                      jg       fullsearch+25a            0x1                              0x3
0xa694  fullsearch+242:          8B542424         0x72        0x6a                          movl     0x24(%esp), %edx          0x1                              
0xa698                           8B44242C         0x72        0x6e                          movl     0x2c(%esp), %eax          0x1                              
0xa69c                           3BC2             0x72        0x70                          cmpl     %edx, %eax                0x1                              
0xa69e                           7C0C             0x72                                      jnge     fullsearch+25a            0x1                              0x3
0xa6a0  fullsearch+24e:          8B542420         0x71        0x6a                          movl     0x20(%esp), %edx          0x1                              
0xa6a4                           3BC2             0x71        0x6e                          cmpl     %edx, %eax                0x1                              
0xa6a6                           0F8EB4020000     0x71        0x70                          jle      fullsearch+50e            0x1                              0x3
0xa6ac  fullsearch+25a:          8B1424           0x71        0x6a                          movl     (%esp), %edx              0x1                              
0xa6af                           8D0433           0x71        0x70                          leal     (%ebx, %esi, 1), %eax     0x1                              
0xa6b2                           89442408         0x71        0x6a                          movl     %eax, 0x8(%esp)           0x2                              
0xa6b6                           3BD7             0x71        0x6e                          cmpl     %edi, %edx                0x1                              
0xa6b8                           7C23             0x71        0x70                          jnge     fullsearch+28b            0x1                              0x3
0xa6ba  fullsearch+268:          8B542428         0x71        0x6a                          movl     0x28(%esp), %edx          0x1                              
0xa6be                           8B0424           0x71        0x6e                          movl     (%esp), %eax              0x1                              
0xa6c1                           3BC2             0x72        0x70                          cmpl     %edx, %eax                0x1                              
0xa6c3                           7F18             0x72                                      jg       fullsearch+28b            0x1                              0x3
0xa6c5  fullsearch+273:          8B542424         0x72        0x6a                          movl     0x24(%esp), %edx          0x1                              
0xa6c9                           8B442408         0x72        0x6e                          movl     0x8(%esp), %eax           0x1                              
0xa6cd                           3BC2             0x72        0x70                          cmpl     %edx, %eax                0x1                              
0xa6cf                           7C0C             0x72                                      jnge     fullsearch+28b            0x1                              0x3
0xa6d1  fullsearch+27f:          8B542420         0x72        0x6a                          movl     0x20(%esp), %edx          0x1                              
0xa6d5                           3BC2             0x72        0x6e                          cmpl     %edx, %eax                0x1                              
0xa6d7                           0F8EDB020000     0x72        0x70                          jle      fullsearch+566            0x1                              0x3
0xa6dd  fullsearch+28b:          8D443500         0x72                                      leal     (%ebp, %esi, 1), %eax     0x1                              
0xa6e1                           89442404         0x71        0x6a                          movl     %eax, 0x4(%esp)           0x2                              
0xa6e5                           3BC7             0x71        0x6e                          cmpl     %edi, %eax                0x1                              
0xa6e7                           7C20             0x71        0x70                          jnge     fullsearch+2b7            0x1                              0x3
0xa6e9  fullsearch+297:          8B542428         0x71        0x6a                          movl     0x28(%esp), %edx          0x1                              
0xa6ed                           3BC2             0x71        0x6e                          cmpl     %edx, %eax                0x1                              
0xa6ef                           7F18             0x71        0x70                          jg       fullsearch+2b7            0x1                              0x3
0xa6f1  fullsearch+29f:          8B542424         0x71        0x6a                          movl     0x24(%esp), %edx          0x1                              
0xa6f5                           8B44242C         0x71        0x6e                          movl     0x2c(%esp), %eax          0x1                              
0xa6f9                           3BC2             0x71        0x70                          cmpl     %edx, %eax                0x1                              
0xa6fb                           7C0C             0x71                                      jnge     fullsearch+2b7            0x1                              0x3
0xa6fd  fullsearch+2ab:          8B542420         0x71        0x6a                          movl     0x20(%esp), %edx          0x1                              
0xa701                           3BC2             0x72        0x6e                          cmpl     %edx, %eax                0x1                              
0xa703                           0F8E07030000     0x72        0x70                          jle      fullsearch+5be            0x1                              0x3
0xa709  fullsearch+2b7:          8B442404         0x72        0x6a                          movl     0x4(%esp), %eax           0x1                              
0xa70d                           3BC7             0x72        0x6e                          cmpl     %edi, %eax                0x1                              
0xa70f                           7C20             0x72        0x70                          jnge     fullsearch+2df            0x1                              0x3
0xa711  fullsearch+2bf:          8B542428         0x72        0x6a                          movl     0x28(%esp), %edx          0x1                              
0xa715                           3BC2             0x72        0x6e                          cmpl     %edx, %eax                0x1                              
0xa717                           7F18             0x72        0x70                          jg       fullsearch+2df            0x1                              0x3
0xa719  fullsearch+2c7:          8B542424         0x72        0x6a                          movl     0x24(%esp), %edx          0x1                              
0xa71d                           8B442408         0x72        0x6e                          movl     0x8(%esp), %eax           0x1                              
0xa721                           3BC2             0x71        0x70                          cmpl     %edx, %eax                0x1                              
0xa723                           7C0C             0x71                                      jnge     fullsearch+2df            0x1                              0x3
0xa725  fullsearch+2d3:          8B542420         0x71        0x6a                          movl     0x20(%esp), %edx          0x1                              
0xa729                           3BC2             0x71        0x6e                          cmpl     %edx, %eax                0x1                              
0xa72b                           0F8E39030000     0x71        0x70                          jle      fullsearch+618            0x1                              0x3
0xa731  fullsearch+2df:          8B442404         0x71        0x6a                          movl     0x4(%esp), %eax           0x1                              
0xa735                           3BC7             0x71        0x6e                          cmpl     %edi, %eax                0x1                              
0xa737                           7C1C             0x71        0x70                          jnge     fullsearch+303            0x1                              0x3
0xa739  fullsearch+2e7:          8B542428         0x71        0x6a                          movl     0x28(%esp), %edx          0x1                              
0xa73d                           3BC2             0x71        0x6e                          cmpl     %edx, %eax                0x1                              
0xa73f                           7F14             0x71        0x70                          jg       fullsearch+303            0x1                              0x3
0xa741  fullsearch+2ef:          8B442424         0x72        0x6a                          movl     0x24(%esp), %eax          0x1                              
0xa745                           3BD8             0x72        0x6e                          cmpl     %eax, %ebx                0x1                              
0xa747                           7C0C             0x72        0x70                          jnge     fullsearch+303            0x1                              0x3
0xa749  fullsearch+2f7:          8B442420         0x72        0x6a                          movl     0x20(%esp), %eax          0x1                              
0xa74d                           3BD8             0x72        0x6e                          cmpl     %eax, %ebx                0x1                              
0xa74f                           0F8E6F030000     0x72        0x70                          jle      fullsearch+672            0x1                              0x3
0xa755  fullsearch+303:          3BEF             0x72        0x6a                          cmpl     %edi, %ebp                0x1                              
0xa757                           7C20             0x72        0x70                          jnge     fullsearch+327            0x1                              0x3
0xa759  fullsearch+307:          8B442428         0x72        0x6a                          movl     0x28(%esp), %eax          0x1                              
0xa75d                           3BE8             0x72        0x6e                          cmpl     %eax, %ebp                0x1                              
0xa75f                           7F18             0x72        0x70                          jg       fullsearch+327            0x1                              0x3
0xa761  fullsearch+30f:          8B542424         0x71        0x6a                          movl     0x24(%esp), %edx          0x1                              
0xa765                           8B44242C         0x71        0x6e                          movl     0x2c(%esp), %eax          0x1                              
0xa769                           3BC2             0x71        0x70                          cmpl     %edx, %eax                0x1                              
0xa76b                           7C0C             0x71                                      jnge     fullsearch+327            0x1                              0x3
0xa76d  fullsearch+31b:          8B542420         0x71        0x6a                          movl     0x20(%esp), %edx          0x1                              
0xa771                           3BC2             0x71        0x6e                          cmpl     %edx, %eax                0x1                              
0xa773                           0F8E9F030000     0x71        0x70                          jle      fullsearch+6c6            0x1                              0x3
0xa779  fullsearch+327:          8B0424           0x71        0x6a                          movl     (%esp), %eax              0x1                              
0xa77c                           3BC7             0x71        0x6e                          cmpl     %edi, %eax                0x1                              
0xa77e                           7C1C             0x71        0x70                          jnge     fullsearch+34a            0x1                              0x3
0xa780  fullsearch+32e:          8B542428         0x72        0x6a                          movl     0x28(%esp), %edx          0x1                              
0xa784                           3BC2             0x72        0x6e                          cmpl     %edx, %eax                0x1                              
0xa786                           7F14             0x72        0x70                          jg       fullsearch+34a            0x1                              0x3
0xa788  fullsearch+336:          8B442424         0x72        0x6a                          movl     0x24(%esp), %eax          0x1                              
0xa78c                           3BD8             0x72        0x6e                          cmpl     %eax, %ebx                0x1                              
0xa78e                           7C0C             0x72        0x70                          jnge     fullsearch+34a            0x1                              0x3
0xa790  fullsearch+33e:          8B442420         0x72        0x6a                          movl     0x20(%esp), %eax          0x1                              
0xa794                           3BD8             0x72        0x6e                          cmpl     %eax, %ebx                0x1                              
0xa796                           0F8ECE030000     0x72        0x70                          jle      fullsearch+718            0x1                              0x3
0xa79c  fullsearch+34a:          3BEF             0x72        0x6a                          cmpl     %edi, %ebp                0x1                              
0xa79e                           7C65             0x72        0x70                          jnge     fullsearch+3b3            0x1                              0x3
0xa7a0  fullsearch+34e:          8B442428         0x71        0x6a                          movl     0x28(%esp), %eax          0x1                              
0xa7a4                           3BE8             0x71        0x6e                          cmpl     %eax, %ebp                0x1                              
0xa7a6                           7F5D             0x71        0x70                          jg       fullsearch+3b3            0x1                              0x3
0xa7a8  fullsearch+356:          8B542424         0x71        0x6a                          movl     0x24(%esp), %edx          0x1                              
0xa7ac                           8B442408         0x71        0x6e                          movl     0x8(%esp), %eax           0x1                              
0xa7b0                           3BC2             0x71        0x70                          cmpl     %edx, %eax                0x1                              
0xa7b2                           7C51             0x71                                      jnge     fullsearch+3b3            0x1                              0x3
0xa7b4  fullsearch+362:          8B542420         0x71        0x6a                          movl     0x20(%esp), %edx          0x1                              
0xa7b8                           3BC2             0x71        0x6e                          cmpl     %edx, %eax                0x1                              
0xa7ba                           7F49             0x71        0x70                          jg       fullsearch+3b3            0x1                              0x3
0xa7bc  fullsearch+36a:          8B5C2454         0x71        0x6a                          movl     0x54(%esp), %ebx          0x1                              
0xa7c0                           8B542460         0x72        0x6e                          movl     0x60(%esp), %edx          0x1                              
0xa7c4                           8D0C2B           0x72        0x70                          leal     (%ebx, %ebp, 1), %ecx     0x1                              
0xa7c7                           8B5C241C         0x72        0x6a                          movl     0x1c(%esp), %ebx          0x1                              
0xa7cb                           8BC2             0x72        0x70                          movl     %edx, %eax                0x1                              
0xa7cd                           0FAF442408       0x72        0x6a                          imull    0x8(%esp), %eax           0x2                              
0xa7d2                           03C8             0x72        0x6e                          addl     %eax, %ecx                0x1                              
0xa7d4                           33C0             0x72        0x70                          xorl     %eax, %eax                0x1                              
0xa7d6                           53               0x72        0x6a                          pushl    %ebx                      0x3                              
0xa7d7                           8B5C2478         0x72        0x70                          movl     0x78(%esp), %ebx          0x1                              
0xa7db                           53               0x72                                      pushl    %ebx                      0x3                              
0xa7dc                           50               0x72                                      pushl    %eax                      0x3                              
0xa7dd                           50               0x72                                      pushl    %eax                      0x3                              
0xa7de                           52               0x72        0x6a                          pushl    %edx                      0x3                              
0xa7df                           8B442470         0x72        0x70                          movl     0x70(%esp), %eax          0x1                              
0xa7e3                           50               0x71                                      pushl    %eax                      0x3                              
0xa7e4                           51               0x71                                      pushl    %ecx                      0x3                              
0xa7e5                           E8D2030000       0x71        0x6a                          call     dist1                     0x4                              0x3
0xa7ea  fullsearch+398:          83C41C           0x71        0x6e                          addl     $0x1c, %esp               0x1                              
0xa7ed                           8B54241C         0x71        0x70                          movl     0x1c(%esp), %edx          0x1                              
0xa7f1                           3BC2             0x71        0x6a                          cmpl     %edx, %eax                0x1                              
0xa7f3                           7D10             0x71        0x70                          jge      fullsearch+3b3            0x1                              0x3
0xa7f5  fullsearch+3a3:          8B542408         0x71                                      movl     0x8(%esp), %edx           0x1                              
0xa7f9                           896C2418         0x71                                      movl     %ebp, 0x18(%esp)          0x2                              
0xa7fd                           89542414         0x71                                      movl     %edx, 0x14(%esp)          0x2                              
0xa801                           8944241C         0x72        0x6a                          movl     %eax, 0x1c(%esp)          0x2                              
0xa805  fullsearch+3b3:          8B6C2418         0x72        0x6e                          movl     0x18(%esp), %ebp          0x1                              
0xa809                           8B5C2414         0x72        0x70                          movl     0x14(%esp), %ebx          0x1                              
0xa80d                           8BC6             0x72        0x6a                          movl     %esi, %eax                0x1                              
0xa80f                           C1E81F           0x72        0x6e                          shrl     $0x1f, %eax               0x1                              
0xa812                           03F0             0x72        0x70                          addl     %eax, %esi                0x1                              
0xa814                           D1FE             0x72        0x6a                          sarl     0x1, %esi                 0x1                              
0xa816                           85F6             0x72        0x6e                          testl    %esi, %esi                0x1                              
0xa818                           0F8F58FEFFFF     0x72        0x70                          jg       fullsearch+224            0x1                              0x3
0xa81e  fullsearch+3cc:          8B542410         0x72        0x6a                          movl     0x10(%esp), %edx          0x1                              
0xa822                           8B4C240C         0x71        0x6e                          movl     0xc(%esp), %ecx           0x1                              
0xa826                           EB0F             0x71        0x70                          jmp      fullsearch+3e5            0x1                              0x3
0xa828  fullsearch+3d6:          8B442478         0x71        0x6a                          movl     0x78(%esp), %eax          0x1                              
0xa82c                           8B54247C         0x71        0x70                          movl     0x7c(%esp), %edx          0x1                              
0xa830                           2B542474         0x71        0x6a                          subl     0x74(%esp), %edx          0x2                              
0xa834                           8D48F0           0x71        0x6e                          leal     -16(%eax), %ecx           0x1                              
0xa837  fullsearch+3e5:          BE00000100       0x71        0x70                          movl     $0x10000, %esi            0x1                              
0xa83c                           03ED             0x71        0x6a                          addl     %ebp, %ebp                0x1                              
0xa83e                           03DB             0x71        0x6e                          addl     %ebx, %ebx                0x1                              
0xa840                           85ED             0x72        0x70                          testl    %ebp, %ebp                0x1                              
0xa842                           B800000000       0x72        0x6a                          movl     $0x0, %eax                0x1                              
0xa847                           0F9FC0           0x72        0x6e                          setg     %al                       0x1                              
0xa84a                           03C9             0x72        0x70                          addl     %ecx, %ecx                0x1                              
0xa84c                           3BE9             0x72        0x6a                          cmpl     %ecx, %ebp                0x1                              
0xa84e                           B900000000       0x72        0x6e                          movl     $0x0, %ecx                0x1                              
0xa853                           0F9CC1           0x72        0x70                          setl     %cl                       0x1                              
0xa856                           F7D8             0x72        0x6a          0x66            negl     %eax                      0x1   Partial_Register_Stall:eax 
0xa858                           03C5             0x72        0x6e                          addl     %ebp, %eax                0x1                              
0xa85a                           03CD             0x72        0x70          0x66            addl     %ebp, %ecx                0x1   Partial_Register_Stall:ecx 
0xa85c                           89442430         0x72                                      movl     %eax, 0x30(%esp)          0x2                              
0xa860                           894C2420         0x71        0x6a                          movl     %ecx, 0x20(%esp)          0x2                              
0xa864                           85DB             0x71        0x6e                          testl    %ebx, %ebx                0x1                              
0xa866                           B800000000       0x71        0x70                          movl     $0x0, %eax                0x1                              
0xa86b                           0F9FC0           0x71        0x6a                          setg     %al                       0x1                              
0xa86e                           03D2             0x71        0x6e                          addl     %edx, %edx                0x1                              
0xa870                           3BDA             0x71        0x70                          cmpl     %edx, %ebx                0x1                              
0xa872                           BA00000000       0x71        0x6a                          movl     $0x0, %edx                0x1                              
0xa877                           0F9CC2           0x71        0x6e                          setl     %dl                       0x1                              
0xa87a                           F7D8             0x71        0x70          0x66            negl     %eax                      0x1   Partial_Register_Stall:eax 
0xa87c                           03C3             0x71        0x6a                          addl     %ebx, %eax                0x1                              
0xa87e                           03D3             0x71        0x70          0x66            addl     %ebx, %edx                0x1   Partial_Register_Stall:edx 
0xa880                           8954242C         0x72        0x6a                          movl     %edx, 0x2c(%esp)          0x2                              
0xa884                           3BC2             0x72        0x6e                          cmpl     %edx, %eax                0x1                              
0xa886                           0F8FB8000000     0x72        0x70                          jg       fullsearch+4f2            0x1                              0x3
0xa88c  fullsearch+43a:          895C2414         0x72        0x6a                          movl     %ebx, 0x14(%esp)          0x2                              
0xa890                           8B5C2430         0x72        0x70                          movl     0x30(%esp), %ebx          0x1                              
0xa894                           896C2418         0x72                                      movl     %ebp, 0x18(%esp)          0x2                              
0xa898                           89742408         0x72        0x6a                          movl     %esi, 0x8(%esp)           0x2                              
0xa89c  fullsearch+44a:          8BFB             0x72        0x6e                          movl     %ebx, %edi                0x1                              
0xa89e                           3BD9             0x72        0x70                          cmpl     %ecx, %ebx                0x1                              
0xa8a0                           0F8F87000000     0x71                                      jg       fullsearch+4db            0x1                              0x3
0xa8a6  fullsearch+454:          89442428         0x71        0x6a                          movl     %eax, 0x28(%esp)          0x2                              
0xa8aa                           8BE8             0x71        0x6e                          movl     %eax, %ebp                0x1                              
0xa8ac                           D1FD             0x71        0x70                          sarl     0x1, %ebp                 0x1                              
0xa8ae                           0FAF6C2460       0x71        0x6a                          imull    0x60(%esp), %ebp          0x2                              
0xa8b3                           8BF0             0x71        0x6e                          movl     %eax, %esi                0x1                              
0xa8b5                           83E601           0x71        0x70                          andl     $0x1, %esi                0x1                              
0xa8b8                           036C2458         0x71        0x6a                          addl     0x58(%esp), %ebp          0x2                              
0xa8bc                           8BDF             0x71        0x70                          movl     %edi, %ebx                0x1                              
0xa8be                           8974241C         0x71        0x6a                          movl     %esi, 0x1c(%esp)          0x2                              
0xa8c2                           8B742408         0x72        0x70                          movl     0x8(%esp), %esi           0x1                              
0xa8c6                           896C2424         0x72        0x6a                          movl     %ebp, 0x24(%esp)          0x2                              
0xa8ca                           8B6C2418         0x72        0x6e                          movl     0x18(%esp), %ebp          0x1                              
0xa8ce  fullsearch+47c:          8BC3             0x72        0x70                          movl     %ebx, %eax                0x1                              
0xa8d0                           D1F8             0x72                                      sarl     0x1, %eax                 0x1                              
0xa8d2                           03442424         0x72        0x6a                          addl     0x24(%esp), %eax          0x2                              
0xa8d6                           8BFB             0x72        0x6e                          movl     %ebx, %edi                0x1                              
0xa8d8                           83E701           0x72        0x70                          andl     $0x1, %edi                0x1                              
0xa8db                           56               0x72        0x6a                          pushl    %esi                      0x3                              
0xa8dc                           8B542478         0x72        0x70                          movl     0x78(%esp), %edx          0x1                              
0xa8e0                           52               0x71        0x6a                          pushl    %edx                      0x3                              
0xa8e1                           8B4C2424         0x71        0x70                          movl     0x24(%esp), %ecx          0x1                              
0xa8e5                           51               0x71                                      pushl    %ecx                      0x3                              
0xa8e6                           57               0x71        0x6a                          pushl    %edi                      0x3                              
0xa8e7                           8B542470         0x71        0x70                          movl     0x70(%esp), %edx          0x1                              
0xa8eb                           52               0x71        0x6a                          pushl    %edx                      0x3                              
0xa8ec                           8B542470         0x71        0x70                          movl     0x70(%esp), %edx          0x1                              
0xa8f0                           52               0x71                                      pushl    %edx                      0x3                              
0xa8f1                           50               0x71                                      pushl    %eax                      0x3                              
0xa8f2                           E8C5020000       0x71        0x6a                          call     dist1                     0x4                              0x3
0xa8f7  fullsearch+4a5:          83C41C           0x71        0x6e                          addl     $0x1c, %esp               0x1                              
0xa8fa                           3BC6             0x71        0x70                          cmpl     %esi, %eax                0x1                              
0xa8fc                           7D0C             0x71                                      jge      fullsearch+4b8            0x1                              0x3
0xa8fe  fullsearch+4ac:          8BF0             0x71        0x6a                          movl     %eax, %esi                0x1                              
0xa900                           8B442428         0x72        0x70                          movl     0x28(%esp), %eax          0x1                              
0xa904                           89442414         0x72        0x6a                          movl     %eax, 0x14(%esp)          0x2                              
0xa908                           8BEB             0x72        0x6e                          movl     %ebx, %ebp                0x1                              
0xa90a  fullsearch+4b8:          8B442420         0x72        0x70                          movl     0x20(%esp), %eax          0x1                              
0xa90e                           83C301           0x72        0x6a                          addl     $0x1, %ebx                0x1                              
0xa911                           3BD8             0x72        0x6e                          cmpl     %eax, %ebx                0x1                              
0xa913                           7EB9             0x72        0x70                          jle      fullsearch+47c            0x1                              0x3
0xa915  fullsearch+4c3:          8B54242C         0x72        0x6a                          movl     0x2c(%esp), %edx          0x1                              
0xa919                           8B442428         0x72        0x6e                          movl     0x28(%esp), %eax          0x1                              
0xa91d                           8B4C2420         0x72        0x70                          movl     0x20(%esp), %ecx          0x1                              
0xa921                           8B5C2430         0x71                                      movl     0x30(%esp), %ebx          0x1                              
0xa925                           896C2418         0x71                                      movl     %ebp, 0x18(%esp)          0x2                              
0xa929                           89742408         0x71        0x6a                          movl     %esi, 0x8(%esp)           0x2                              
0xa92d  fullsearch+4db:          83C001           0x71        0x6e                          addl     $0x1, %eax                0x1                              
0xa930                           3BC2             0x71        0x70                          cmpl     %edx, %eax                0x1                              
0xa932                           0F8E64FFFFFF     0x71                                      jle      fullsearch+44a            0x1                              0x3
0xa938  fullsearch+4e6:          8B5C2414         0x71        0x6a                          movl     0x14(%esp), %ebx          0x1                              
0xa93c                           8B6C2418         0x71        0x6e                          movl     0x18(%esp), %ebp          0x1                              
0xa940                           8B742408         0x72        0x70                          movl     0x8(%esp), %esi           0x1                              
0xa944  fullsearch+4f2:          8B942480000000   0x72        0x6a                          movl     0x80(%esp), %edx          0x1                              
0xa94b                           8B8C2484000000   0x72        0x70                          movl     0x84(%esp), %ecx          0x1                              
0xa952                           892A             0x72                                      movl     %ebp, (%edx)              0x2                              
0xa954                           8919             0x72        0x6a                          movl     %ebx, (%ecx)              0x2                              
0xa956                           8BC6             0x72        0x6e                          movl     %esi, %eax                0x1                              
0xa958                           83C440           0x72        0x70                          addl     $0x40, %esp               0x1                              
0xa95b                           5B               0x72                                      popl     %ebx                      0x2                              
0xa95c                           5D               0x72                                      popl     %ebp                      0x2                              
0xa95d                           5E               0x72                                      popl     %esi                      0x2                              
0xa95e                           5F               0x72                                      popl     %edi                      0x2                              
0xa95f                           C3               0x72        0x6a                          ret                                0x4                              
0xa960  fullsearch+50e:          8B4C2454         0x71        0x6e                          movl     0x54(%esp), %ecx          0x1                              
0xa964                           8B0424           0x71        0x70                          movl     (%esp), %eax              0x1                              
0xa967                           8D1401           0x71        0x6a                          leal     (%ecx, %eax, 1), %edx     0x1                              
0xa96a                           8B442460         0x71        0x6e                          movl     0x60(%esp), %eax          0x1                              
0xa96e                           8BC8             0x71        0x70                          movl     %eax, %ecx                0x1                              
0xa970                           0FAF4C242C       0x71        0x6a                          imull    0x2c(%esp), %ecx          0x2                              
0xa975                           03D1             0x71        0x6e                          addl     %ecx, %edx                0x1                              
0xa977                           8B4C241C         0x71        0x70                          movl     0x1c(%esp), %ecx          0x1                              
0xa97b                           51               0x71        0x6a                          pushl    %ecx                      0x3                              
0xa97c                           8B4C2478         0x71        0x70                          movl     0x78(%esp), %ecx          0x1                              
0xa980                           51               0x72        0x6a                          pushl    %ecx                      0x3                              
0xa981                           33C9             0x72        0x70                          xorl     %ecx, %ecx                0x1                              
0xa983                           51               0x72                                      pushl    %ecx                      0x3                              
0xa984                           51               0x72                                      pushl    %ecx                      0x3                              
0xa985                           50               0x72        0x6a                          pushl    %eax                      0x3                              
0xa986                           8B442470         0x72        0x70                          movl     0x70(%esp), %eax          0x1                              
0xa98a                           50               0x72                                      pushl    %eax                      0x3                              
0xa98b                           52               0x72                                      pushl    %edx                      0x3                              
0xa98c                           E82B020000       0x72        0x6a                          call     dist1                     0x4                              0x3
0xa991  fullsearch+53f:          83C41C           0x72        0x6e                          addl     $0x1c, %esp               0x1                              
0xa994                           8B54241C         0x72        0x70                          movl     0x1c(%esp), %edx          0x1                              
0xa998                           3BC2             0x72        0x6a                          cmpl     %edx, %eax                0x1                              
0xa99a                           0F8D0CFDFFFF     0x72        0x70                          jge      fullsearch+25a            0x1                              0x3
0xa9a0  fullsearch+54e:          8B1424           0x71        0x6a                          movl     (%esp), %edx              0x1                              
0xa9a3                           8B4C242C         0x71        0x70                          movl     0x2c(%esp), %ecx          0x1                              
0xa9a7                           89542418         0x71                                      movl     %edx, 0x18(%esp)          0x2                              
0xa9ab                           894C2414         0x71                                      movl     %ecx, 0x14(%esp)          0x2                              
0xa9af                           8944241C         0x71        0x6a                          movl     %eax, 0x1c(%esp)          0x2                              
0xa9b3                           E9F4FCFFFF       0x71        0x6e                          jmp      fullsearch+25a            0x1                              0x3
0xa9b8  fullsearch+566:          8B4C2454         0x71        0x70                          movl     0x54(%esp), %ecx          0x1                              
0xa9bc                           8B0424           0x71        0x6a                          movl     (%esp), %eax              0x1                              
0xa9bf                           8D1401           0x71        0x6e                          leal     (%ecx, %eax, 1), %edx     0x1                              
0xa9c2                           8B442460         0x72        0x70                          movl     0x60(%esp), %eax          0x1                              
0xa9c6                           8BC8             0x72                                      movl     %eax, %ecx                0x1                              
0xa9c8                           0FAF4C2408       0x72        0x6a                          imull    0x8(%esp), %ecx           0x2                              
0xa9cd                           03D1             0x72        0x6e                          addl     %ecx, %edx                0x1                              
0xa9cf                           8B4C241C         0x72        0x70                          movl     0x1c(%esp), %ecx          0x1                              
0xa9d3                           51               0x72        0x6a                          pushl    %ecx                      0x3                              
0xa9d4                           8B4C2478         0x72        0x70                          movl     0x78(%esp), %ecx          0x1                              
0xa9d8                           51               0x72        0x6a                          pushl    %ecx                      0x3                              
0xa9d9                           33C9             0x72        0x70                          xorl     %ecx, %ecx                0x1                              
0xa9db                           51               0x72                                      pushl    %ecx                      0x3                              
0xa9dc                           51               0x72                                      pushl    %ecx                      0x3                              
0xa9dd                           50               0x72        0x6a                          pushl    %eax                      0x3                              
0xa9de                           8B442470         0x72        0x70                          movl     0x70(%esp), %eax          0x1                              
0xa9e2                           50               0x71                                      pushl    %eax                      0x3                              
0xa9e3                           52               0x71                                      pushl    %edx                      0x3                              
0xa9e4                           E8D3010000       0x71        0x6a                          call     dist1                     0x4                              0x3
0xa9e9  fullsearch+597:          83C41C           0x71        0x6e                          addl     $0x1c, %esp               0x1                              
0xa9ec                           8B54241C         0x71        0x70                          movl     0x1c(%esp), %edx          0x1                              
0xa9f0                           3BC2             0x71        0x6a                          cmpl     %edx, %eax                0x1                              
0xa9f2                           0F8DE5FCFFFF     0x71        0x70                          jge      fullsearch+28b            0x1                              0x3
0xa9f8  fullsearch+5a6:          8B1424           0x71        0x6a                          movl     (%esp), %edx              0x1                              
0xa9fb                           8B4C2408         0x71        0x70                          movl     0x8(%esp), %ecx           0x1                              
0xa9ff                           89542418         0x71                                      movl     %edx, 0x18(%esp)          0x2                              
0xaa03                           894C2414         0x72                                      movl     %ecx, 0x14(%esp)          0x2                              
0xaa07                           8944241C         0x72        0x6a                          movl     %eax, 0x1c(%esp)          0x2                              
0xaa0b                           E9CDFCFFFF       0x72        0x6e                          jmp      fullsearch+28b            0x1                              0x3
0xaa10  fullsearch+5be:          8B4C2454         0x72        0x70                          movl     0x54(%esp), %ecx          0x1                              
0xaa14                           8B442404         0x72        0x6a                          movl     0x4(%esp), %eax           0x1                              
0xaa18                           8D1401           0x72        0x6e                          leal     (%ecx, %eax, 1), %edx     0x1                              
0xaa1b                           8B442460         0x72        0x70                          movl     0x60(%esp), %eax          0x1                              
0xaa1f                           8BC8             0x72                                      movl     %eax, %ecx                0x1                              
0xaa21                           0FAF4C242C       0x71        0x6a                          imull    0x2c(%esp), %ecx          0x2                              
0xaa26                           03D1             0x71        0x6e                          addl     %ecx, %edx                0x1                              
0xaa28                           8B4C241C         0x71        0x70                          movl     0x1c(%esp), %ecx          0x1                              
0xaa2c                           51               0x71        0x6a                          pushl    %ecx                      0x3                              
0xaa2d                           8B4C2478         0x71        0x70                          movl     0x78(%esp), %ecx          0x1                              
0xaa31                           51               0x71        0x6a                          pushl    %ecx                      0x3                              
0xaa32                           33C9             0x71        0x70                          xorl     %ecx, %ecx                0x1                              
0xaa34                           51               0x71                                      pushl    %ecx                      0x3                              
0xaa35                           51               0x71                                      pushl    %ecx                      0x3                              
0xaa36                           50               0x71        0x6a                          pushl    %eax                      0x3                              
0xaa37                           8B442470         0x71        0x70                          movl     0x70(%esp), %eax          0x1                              
0xaa3b                           50               0x71                                      pushl    %eax                      0x3                              
0xaa3c                           52               0x71                                      pushl    %edx                      0x3                              
0xaa3d                           E87A010000       0x71        0x6a                          call     dist1                     0x4                              0x3
0xaa42  fullsearch+5f0:          83C41C           0x72        0x6e                          addl     $0x1c, %esp               0x1                              
0xaa45                           8B54241C         0x72        0x70                          movl     0x1c(%esp), %edx          0x1                              
0xaa49                           3BC2             0x72        0x6a                          cmpl     %edx, %eax                0x1                              
0xaa4b                           0F8DB8FCFFFF     0x72        0x70                          jge      fullsearch+2b7            0x1                              0x3
0xaa51  fullsearch+5ff:          8B542404         0x72        0x6a                          movl     0x4(%esp), %edx           0x1                              
0xaa55                           8B4C242C         0x72        0x70                          movl     0x2c(%esp), %ecx          0x1                              
0xaa59                           89542418         0x72                                      movl     %edx, 0x18(%esp)          0x2                              
0xaa5d                           894C2414         0x72                                      movl     %ecx, 0x14(%esp)          0x2                              
0xaa61                           8944241C         0x71        0x6a                          movl     %eax, 0x1c(%esp)          0x2                              
0xaa65                           E99FFCFFFF       0x71        0x6e                          jmp      fullsearch+2b7            0x1                              0x3
0xaa6a  fullsearch+618:          8B4C2454         0x71        0x70                          movl     0x54(%esp), %ecx          0x1                              
0xaa6e                           8B442404         0x71        0x6a                          movl     0x4(%esp), %eax           0x1                              
0xaa72                           8D1401           0x71        0x6e                          leal     (%ecx, %eax, 1), %edx     0x1                              
0xaa75                           8B442460         0x71        0x70                          movl     0x60(%esp), %eax          0x1                              
0xaa79                           8BC8             0x71                                      movl     %eax, %ecx                0x1                              
0xaa7b                           0FAF4C2408       0x71        0x6a                          imull    0x8(%esp), %ecx           0x2                              
0xaa80                           03D1             0x72        0x6e                          addl     %ecx, %edx                0x1                              
0xaa82                           8B4C241C         0x72        0x70                          movl     0x1c(%esp), %ecx          0x1                              
0xaa86                           51               0x72        0x6a                          pushl    %ecx                      0x3                              
0xaa87                           8B4C2478         0x72        0x70                          movl     0x78(%esp), %ecx          0x1                              
0xaa8b                           51               0x72        0x6a                          pushl    %ecx                      0x3                              
0xaa8c                           33C9             0x72        0x70                          xorl     %ecx, %ecx                0x1                              
0xaa8e                           51               0x72                                      pushl    %ecx                      0x3                              
0xaa8f                           51               0x72                                      pushl    %ecx                      0x3                              
0xaa90                           50               0x72        0x6a                          pushl    %eax                      0x3                              
0xaa91                           8B442470         0x72        0x70                          movl     0x70(%esp), %eax          0x1                              
0xaa95                           50               0x72                                      pushl    %eax                      0x3                              
0xaa96                           52               0x72                                      pushl    %edx                      0x3                              
0xaa97                           E820010000       0x72        0x6a                          call     dist1                     0x4                              0x3
0xaa9c  fullsearch+64a:          83C41C           0x72        0x6e                          addl     $0x1c, %esp               0x1                              
0xaa9f                           8B54241C         0x72        0x70                          movl     0x1c(%esp), %edx          0x1                              
0xaaa3                           3BC2             0x71        0x6a                          cmpl     %edx, %eax                0x1                              
0xaaa5                           0F8D86FCFFFF     0x71        0x70                          jge      fullsearch+2df            0x1                              0x3
0xaaab  fullsearch+659:          8B542404         0x71        0x6a                          movl     0x4(%esp), %edx           0x1                              
0xaaaf                           8B4C2408         0x71        0x70                          movl     0x8(%esp), %ecx           0x1                              
0xaab3                           89542418         0x71                                      movl     %edx, 0x18(%esp)          0x2                              
0xaab7                           894C2414         0x71                                      movl     %ecx, 0x14(%esp)          0x2                              
0xaabb                           8944241C         0x71        0x6a                          movl     %eax, 0x1c(%esp)          0x2                              
0xaabf                           E96DFCFFFF       0x71        0x6e                          jmp      fullsearch+2df            0x1                              0x3
0xaac4  fullsearch+672:          8B4C2454         0x72        0x70                          movl     0x54(%esp), %ecx          0x1                              
0xaac8                           8B442404         0x72        0x6a                          movl     0x4(%esp), %eax           0x1                              
0xaacc                           8D1401           0x72        0x6e                          leal     (%ecx, %eax, 1), %edx     0x1                              
0xaacf                           8B442460         0x72        0x70                          movl     0x60(%esp), %eax          0x1                              
0xaad3                           8BC8             0x72        0x6a                          movl     %eax, %ecx                0x1                              
0xaad5                           0FAFCB           0x72        0x6e                          imull    %ebx, %ecx                0x1                              
0xaad8                           03D1             0x72        0x70                          addl     %ecx, %edx                0x1                              
0xaada                           8B4C241C         0x72                                      movl     0x1c(%esp), %ecx          0x1                              
0xaade                           51               0x72        0x6a                          pushl    %ecx                      0x3                              
0xaadf                           8B4C2478         0x72        0x70                          movl     0x78(%esp), %ecx          0x1                              
0xaae3                           51               0x71        0x6a                          pushl    %ecx                      0x3                              
0xaae4                           33C9             0x71        0x70                          xorl     %ecx, %ecx                0x1                              
0xaae6                           51               0x71                                      pushl    %ecx                      0x3                              
0xaae7                           51               0x71                                      pushl    %ecx                      0x3                              
0xaae8                           50               0x71        0x6a                          pushl    %eax                      0x3                              
0xaae9                           8B442470         0x71        0x70                          movl     0x70(%esp), %eax          0x1                              
0xaaed                           50               0x71                                      pushl    %eax                      0x3                              
0xaaee                           52               0x71                                      pushl    %edx                      0x3                              
0xaaef                           E8C8000000       0x71        0x6a                          call     dist1                     0x4                              0x3
0xaaf4  fullsearch+6a2:          83C41C           0x71        0x6e                          addl     $0x1c, %esp               0x1                              
0xaaf7                           8B54241C         0x71        0x70                          movl     0x1c(%esp), %edx          0x1                              
0xaafb                           3BC2             0x71        0x6a                          cmpl     %edx, %eax                0x1                              
0xaafd                           0F8D52FCFFFF     0x71        0x70                          jge      fullsearch+303            0x1                              0x3
0xab03  fullsearch+6b1:          8B542404         0x72                                      movl     0x4(%esp), %edx           0x1                              
0xab07                           89542418         0x72                                      movl     %edx, 0x18(%esp)          0x2                              
0xab0b                           895C2414         0x72                                      movl     %ebx, 0x14(%esp)          0x2                              
0xab0f                           8944241C         0x72        0x6a                          movl     %eax, 0x1c(%esp)          0x2                              
0xab13                           E93DFCFFFF       0x72        0x6e                          jmp      fullsearch+303            0x1                              0x3
0xab18  fullsearch+6c6:          8B4C2454         0x72        0x70                          movl     0x54(%esp), %ecx          0x1                              
0xab1c                           8B442460         0x72        0x6a                          movl     0x60(%esp), %eax          0x1                              
0xab20                           8D1429           0x71        0x6e                          leal     (%ecx, %ebp, 1), %edx     0x1                              
0xab23                           8BC8             0x71        0x70                          movl     %eax, %ecx                0x1                              
0xab25                           0FAF4C242C       0x71        0x6a                          imull    0x2c(%esp), %ecx          0x2                              
0xab2a                           03D1             0x71        0x6e                          addl     %ecx, %edx                0x1                              
0xab2c                           8B4C241C         0x71        0x70                          movl     0x1c(%esp), %ecx          0x1                              
0xab30                           51               0x71        0x6a                          pushl    %ecx                      0x3                              
0xab31                           8B4C2478         0x71        0x70                          movl     0x78(%esp), %ecx          0x1                              
0xab35                           51               0x71        0x6a                          pushl    %ecx                      0x3                              
0xab36                           33C9             0x71        0x70                          xorl     %ecx, %ecx                0x1                              
0xab38                           51               0x71                                      pushl    %ecx                      0x3                              
0xab39                           51               0x71                                      pushl    %ecx                      0x3                              
0xab3a                           50               0x71        0x6a                          pushl    %eax                      0x3                              
0xab3b                           8B442470         0x71        0x70                          movl     0x70(%esp), %eax          0x1                              
0xab3f                           50               0x71                                      pushl    %eax                      0x3                              
0xab40                           52               0x72                                      pushl    %edx                      0x3                              
0xab41                           E876000000       0x72        0x6a                          call     dist1                     0x4                              0x3
0xab46  fullsearch+6f4:          83C41C           0x72        0x6e                          addl     $0x1c, %esp               0x1                              
0xab49                           8B54241C         0x72        0x70                          movl     0x1c(%esp), %edx          0x1                              
0xab4d                           3BC2             0x72        0x6a                          cmpl     %edx, %eax                0x1                              
0xab4f                           0F8D24FCFFFF     0x72        0x70                          jge      fullsearch+327            0x1                              0x3
0xab55  fullsearch+703:          8B54242C         0x72                                      movl     0x2c(%esp), %edx          0x1                              
0xab59                           896C2418         0x72                                      movl     %ebp, 0x18(%esp)          0x2                              
0xab5d                           89542414         0x72                                      movl     %edx, 0x14(%esp)          0x2                              
0xab61                           8944241C         0x71        0x6a                          movl     %eax, 0x1c(%esp)          0x2                              
0xab65                           E90FFCFFFF       0x71        0x6e                          jmp      fullsearch+327            0x1                              0x3
0xab6a  fullsearch+718:          8B4C2454         0x71        0x70                          movl     0x54(%esp), %ecx          0x1                              
0xab6e                           8B0424           0x71        0x6a                          movl     (%esp), %eax              0x1                              
0xab71                           8D1401           0x71        0x6e                          leal     (%ecx, %eax, 1), %edx     0x1                              
0xab74                           8B442460         0x71        0x70                          movl     0x60(%esp), %eax          0x1                              
0xab78                           8BC8             0x71        0x6a                          movl     %eax, %ecx                0x1                              
0xab7a                           0FAFCB           0x71        0x6e                          imull    %ebx, %ecx                0x1                              
0xab7d                           03D1             0x71        0x70                          addl     %ecx, %edx                0x1                              
0xab7f                           8B4C241C         0x71                                      movl     0x1c(%esp), %ecx          0x1                              
0xab83                           51               0x72        0x6a                          pushl    %ecx                      0x3                              
0xab84                           8B4C2478         0x72        0x70                          movl     0x78(%esp), %ecx          0x1                              
0xab88                           51               0x72        0x6a                          pushl    %ecx                      0x3                              
0xab89                           33C9             0x72        0x70                          xorl     %ecx, %ecx                0x1                              
0xab8b                           51               0x72                                      pushl    %ecx                      0x3                              
0xab8c                           51               0x72                                      pushl    %ecx                      0x3                              
0xab8d                           50               0x72        0x6a                          pushl    %eax                      0x3                              
0xab8e                           8B442470         0x72        0x70                          movl     0x70(%esp), %eax          0x1                              
0xab92                           50               0x72                                      pushl    %eax                      0x3                              
0xab93                           52               0x72                                      pushl    %edx                      0x3                              
0xab94                           E823000000       0x72        0x6a                          call     dist1                     0x4                              0x3
0xab99  fullsearch+747:          83C41C           0x72        0x6e                          addl     $0x1c, %esp               0x1                              
0xab9c                           8B54241C         0x72        0x70                          movl     0x1c(%esp), %edx          0x1                              
0xaba0                           3BC2             0x71        0x6a                          cmpl     %edx, %eax                0x1                              
0xaba2                           0F8DF4FBFFFF     0x71        0x70                          jge      fullsearch+34a            0x1                              0x3
0xaba8  fullsearch+756:          8B1424           0x71                                      movl     (%esp), %edx              0x1                              
0xabab                           89542418         0x71                                      movl     %edx, 0x18(%esp)          0x2                              
0xabaf                           895C2414         0x71                                      movl     %ebx, 0x14(%esp)          0x2                              
0xabb3                           8944241C         0x71        0x6a                          movl     %eax, 0x1c(%esp)          0x2                              
0xabb7                           E9E0FBFFFF       0x71        0x70                          jmp      fullsearch+34a            0x1                              0x3
0xabbc  dist1:                   57               0x71                                      pushl    %edi                      0x3                              
0xabbd                           56               0x71                                      pushl    %esi                      0x3                              
0xabbe                           55               0x71                                      pushl    %ebp                      0x3                              
0xabbf                           53               0x71        0x6a                          pushl    %ebx                      0x3                              
0xabc0                           83EC1C           0x72        0x6e                          subl     $0x1c, %esp               0x1                              
0xabc3                           8B5C2430         0x72        0x70                          movl     0x30(%esp), %ebx          0x1                              
0xabc7                           8B4C2434         0x72        0x6a                          movl     0x34(%esp), %ecx          0x1                              
0xabcb                           8B7C2438         0x72        0x6e                          movl     0x38(%esp), %edi          0x1                              
0xabcf                           8B44243C         0x72        0x70                          movl     0x3c(%esp), %eax          0x1                              
0xabd3                           8B542440         0x72        0x6a                          movl     0x40(%esp), %edx          0x1                              
0xabd7                           85C0             0x72        0x6e                          testl    %eax, %eax                0x1                              
0xabd9                           0F852A030000     0x72        0x70                          jnz      dist1+34d                 0x1                              0x3
0xabdf  dist1+23:                85D2             0x72        0x6a                          testl    %edx, %edx                0x1                              
0xabe1                           0F8540010000     0x71        0x70                          jnz      dist1+16b                 0x1                              0x3
0xabe7  dist1+2b:                8B542444         0x71        0x6a                          movl     0x44(%esp), %edx          0x1                              
0xabeb                           33ED             0x71        0x6e                          xorl     %ebp, %ebp                0x1                              
0xabed                           33F6             0x71        0x70                          xorl     %esi, %esi                0x1                              
0xabef                           85D2             0x71        0x6a                          testl    %edx, %edx                0x1                              
0xabf1                           0F8E15080000     0x71        0x70                          jle      dist1+850                 0x1                              0x3
0xabf7  dist1+3b:                0FB603           0x71        0x6a                          movzbl   (%ebx), %eax              0x1                              
0xabfa                           0FB611           0x71        0x6e                          movzbl   (%ecx), %edx              0x1                              
0xabfd                           2BC2             0x71        0x70                          subl     %edx, %eax                0x1                              
0xabff                           99               0x71        0x6a                          cltd                               0x1                              
0xac00                           33C2             0x72        0x6e                          xorl     %edx, %eax                0x1                              
0xac02                           2BC2             0x72        0x70                          subl     %edx, %eax                0x1                              
0xac04                           0FB65101         0x72        0x6a                          movzbl   0x1(%ecx), %edx           0x1                              
0xac08                           03E8             0x72        0x6e                          addl     %eax, %ebp                0x1                              
0xac0a                           0FB64301         0x72        0x70                          movzbl   0x1(%ebx), %eax           0x1                              
0xac0e                           2BC2             0x72        0x6a                          subl     %edx, %eax                0x1                              
0xac10                           99               0x72        0x6e                          cltd                               0x1                              
0xac11                           33C2             0x72        0x70                          xorl     %edx, %eax                0x1                              
0xac13                           2BC2             0x72        0x6a                          subl     %edx, %eax                0x1                              
0xac15                           0FB65102         0x72        0x6e                          movzbl   0x2(%ecx), %edx           0x1                              
0xac19                           03E8             0x72        0x70                          addl     %eax, %ebp                0x1                              
0xac1b                           0FB64302         0x72        0x6a                          movzbl   0x2(%ebx), %eax           0x1                              
0xac1f                           2BC2             0x72        0x6e                          subl     %edx, %eax                0x1                              
0xac21                           99               0x71        0x70                          cltd                               0x1                              
0xac22                           33C2             0x71        0x6a                          xorl     %edx, %eax                0x1                              
0xac24                           2BC2             0x71        0x6e                          subl     %edx, %eax                0x1                              
0xac26                           0FB65103         0x71        0x70                          movzbl   0x3(%ecx), %edx           0x1                              
0xac2a                           03E8             0x71        0x6a                          addl     %eax, %ebp                0x1                              
0xac2c                           0FB64303         0x71        0x6e                          movzbl   0x3(%ebx), %eax           0x1                              
0xac30                           2BC2             0x71        0x70                          subl     %edx, %eax                0x1                              
0xac32                           99               0x71        0x6a                          cltd                               0x1                              
0xac33                           33C2             0x71        0x6e                          xorl     %edx, %eax                0x1                              
0xac35                           2BC2             0x71        0x70                          subl     %edx, %eax                0x1                              
0xac37                           0FB65104         0x71        0x6a                          movzbl   0x4(%ecx), %edx           0x1                              
0xac3b                           03E8             0x71        0x6e                          addl     %eax, %ebp                0x1                              
0xac3d                           0FB64304         0x71        0x70                          movzbl   0x4(%ebx), %eax           0x1                              
0xac41                           2BC2             0x72        0x6a                          subl     %edx, %eax                0x1                              
0xac43                           99               0x72        0x6e                          cltd                               0x1                              
0xac44                           33C2             0x72        0x70                          xorl     %edx, %eax                0x1                              
0xac46                           2BC2             0x72        0x6a                          subl     %edx, %eax                0x1                              
0xac48                           0FB65105         0x72        0x6e                          movzbl   0x5(%ecx), %edx           0x1                              
0xac4c                           03E8             0x72        0x70                          addl     %eax, %ebp                0x1                              
0xac4e                           0FB64305         0x72        0x6a                          movzbl   0x5(%ebx), %eax           0x1                              
0xac52                           2BC2             0x72        0x6e                          subl     %edx, %eax                0x1                              
0xac54                           99               0x72        0x70                          cltd                               0x1                              
0xac55                           33C2             0x72        0x6a                          xorl     %edx, %eax                0x1                              
0xac57                           2BC2             0x72        0x6e                          subl     %edx, %eax                0x1                              
0xac59                           0FB65106         0x72        0x70                          movzbl   0x6(%ecx), %edx           0x1                              
0xac5d                           03E8             0x72        0x6a                          addl     %eax, %ebp                0x1                              
0xac5f                           0FB64306         0x72        0x6e                          movzbl   0x6(%ebx), %eax           0x1                              
0xac63                           2BC2             0x71        0x70                          subl     %edx, %eax                0x1                              
0xac65                           99               0x71        0x6a                          cltd                               0x1                              
0xac66                           33C2             0x71        0x6e                          xorl     %edx, %eax                0x1                              
0xac68                           2BC2             0x71        0x70                          subl     %edx, %eax                0x1                              
0xac6a                           0FB65107         0x71        0x6a                          movzbl   0x7(%ecx), %edx           0x1                              
0xac6e                           03E8             0x71        0x6e                          addl     %eax, %ebp                0x1                              
0xac70                           0FB64307         0x71        0x70                          movzbl   0x7(%ebx), %eax           0x1                              
0xac74                           2BC2             0x71        0x6a                          subl     %edx, %eax                0x1                              
0xac76                           99               0x71        0x6e                          cltd                               0x1                              
0xac77                           33C2             0x71        0x70                          xorl     %edx, %eax                0x1                              
0xac79                           2BC2             0x71        0x6a                          subl     %edx, %eax                0x1                              
0xac7b                           0FB65108         0x71        0x6e                          movzbl   0x8(%ecx), %edx           0x1                              
0xac7f                           03E8             0x71        0x70                          addl     %eax, %ebp                0x1                              
0xac81                           0FB64308         0x72        0x6a                          movzbl   0x8(%ebx), %eax           0x1                              
0xac85                           2BC2             0x72        0x6e                          subl     %edx, %eax                0x1                              
0xac87                           99               0x72        0x70                          cltd                               0x1                              
0xac88                           33C2             0x72        0x6a                          xorl     %edx, %eax                0x1                              
0xac8a                           2BC2             0x72        0x6e                          subl     %edx, %eax                0x1                              
0xac8c                           0FB65109         0x72        0x70                          movzbl   0x9(%ecx), %edx           0x1                              
0xac90                           03E8             0x72        0x6a                          addl     %eax, %ebp                0x1                              
0xac92                           0FB64309         0x72        0x6e                          movzbl   0x9(%ebx), %eax           0x1                              
0xac96                           2BC2             0x72        0x70                          subl     %edx, %eax                0x1                              
0xac98                           99               0x72        0x6a                          cltd                               0x1                              
0xac99                           33C2             0x72        0x6e                          xorl     %edx, %eax                0x1                              
0xac9b                           2BC2             0x72        0x70                          subl     %edx, %eax                0x1                              
0xac9d                           0FB6510A         0x72        0x6a                          movzbl   0xa(%ecx), %edx           0x1                              
0xaca1                           03E8             0x71        0x6e                          addl     %eax, %ebp                0x1                              
0xaca3                           0FB6430A         0x71        0x70                          movzbl   0xa(%ebx), %eax           0x1                              
0xaca7                           2BC2             0x71        0x6a                          subl     %edx, %eax                0x1                              
0xaca9                           99               0x71        0x6e                          cltd                               0x1                              
0xacaa                           33C2             0x71        0x70                          xorl     %edx, %eax                0x1                              
0xacac                           2BC2             0x71        0x6a                          subl     %edx, %eax                0x1                              
0xacae                           0FB6510B         0x71        0x6e                          movzbl   0xb(%ecx), %edx           0x1                              
0xacb2                           03E8             0x71        0x70                          addl     %eax, %ebp                0x1                              
0xacb4                           0FB6430B         0x71        0x6a                          movzbl   0xb(%ebx), %eax           0x1                              
0xacb8                           2BC2             0x71        0x6e                          subl     %edx, %eax                0x1                              
0xacba                           99               0x71        0x70                          cltd                               0x1                              
0xacbb                           33C2             0x71        0x6a                          xorl     %edx, %eax                0x1                              
0xacbd                           2BC2             0x71        0x6e                          subl     %edx, %eax                0x1                              
0xacbf                           0FB6510C         0x71        0x70                          movzbl   0xc(%ecx), %edx           0x1                              
0xacc3                           03E8             0x72        0x6a                          addl     %eax, %ebp                0x1                              
0xacc5                           0FB6430C         0x72        0x6e                          movzbl   0xc(%ebx), %eax           0x1                              
0xacc9                           2BC2             0x72        0x70                          subl     %edx, %eax                0x1                              
0xaccb                           99               0x72        0x6a                          cltd                               0x1                              
0xaccc                           33C2             0x72        0x6e                          xorl     %edx, %eax                0x1                              
0xacce                           2BC2             0x72        0x70                          subl     %edx, %eax                0x1                              
0xacd0                           0FB6510D         0x72        0x6a                          movzbl   0xd(%ecx), %edx           0x1                              
0xacd4                           03E8             0x72        0x6e                          addl     %eax, %ebp                0x1                              
0xacd6                           0FB6430D         0x72        0x70                          movzbl   0xd(%ebx), %eax           0x1                              
0xacda                           2BC2             0x72        0x6a                          subl     %edx, %eax                0x1                              
0xacdc                           99               0x72        0x6e                          cltd                               0x1                              
0xacdd                           33C2             0x72        0x70                          xorl     %edx, %eax                0x1                              
0xacdf                           2BC2             0x72        0x6a                          subl     %edx, %eax                0x1                              
0xace1                           0FB6510E         0x71        0x6e                          movzbl   0xe(%ecx), %edx           0x1                              
0xace5                           03E8             0x71        0x70                          addl     %eax, %ebp                0x1                              
0xace7                           0FB6430E         0x71        0x6a                          movzbl   0xe(%ebx), %eax           0x1                              
0xaceb                           2BC2             0x71        0x6e                          subl     %edx, %eax                0x1                              
0xaced                           99               0x71        0x70                          cltd                               0x1                              
0xacee                           33C2             0x71        0x6a                          xorl     %edx, %eax                0x1                              
0xacf0                           2BC2             0x71        0x6e                          subl     %edx, %eax                0x1                              
0xacf2                           0FB6510F         0x71        0x70                          movzbl   0xf(%ecx), %edx           0x1                              
0xacf6                           03E8             0x71        0x6a                          addl     %eax, %ebp                0x1                              
0xacf8                           0FB6430F         0x71        0x6e                          movzbl   0xf(%ebx), %eax           0x1                              
0xacfc                           2BC2             0x71        0x70                          subl     %edx, %eax                0x1                              
0xacfe                           99               0x71        0x6a                          cltd                               0x1                              
0xacff                           33C2             0x71        0x6e                          xorl     %edx, %eax                0x1                              
0xad01                           2BC2             0x72        0x70                          subl     %edx, %eax                0x1                              
0xad03                           03E8             0x72                                      addl     %eax, %ebp                0x1                              
0xad05                           3B6C2448         0x72        0x6a                          cmpl     0x48(%esp), %ebp          0x2                              
0xad09                           0F8DFD060000     0x72        0x70                          jge      dist1+850                 0x1                              0x3
0xad0f  dist1+153:               8B542444         0x72        0x6a                          movl     0x44(%esp), %edx          0x1                              
0xad13                           03DF             0x72        0x6e                          addl     %edi, %ebx                0x1                              
0xad15                           03CF             0x72        0x70                          addl     %edi, %ecx                0x1                              
0xad17                           83C601           0x72        0x6a                          addl     $0x1, %esi                0x1                              
0xad1a                           3BF2             0x72        0x6e                          cmpl     %edx, %esi                0x1                              
0xad1c                           0F8CD5FEFFFF     0x72        0x70                          jnge     dist1+3b                  0x1                              0x3
0xad22  dist1+166:               E9E5060000       0x71        0x6a                          jmp      dist1+850                 0x1                              0x3
0xad27  dist1+16b:               8B542444         0x71        0x6e                          movl     0x44(%esp), %edx          0x1                              
0xad2b                           33ED             0x71        0x70                          xorl     %ebp, %ebp                0x1                              
0xad2d                           8D041F           0x71        0x6a                          leal     (%edi, %ebx, 1), %eax     0x1                              
0xad30                           33F6             0x71        0x6e                          xorl     %esi, %esi                0x1                              
0xad32                           85D2             0x71        0x70                          testl    %edx, %edx                0x1                              
0xad34                           0F8ED2060000     0x71                                      jle      dist1+850                 0x1                              0x3
0xad3a  dist1+17e:               8BF9             0x71        0x6a                          movl     %ecx, %edi                0x1                              
0xad3c                           8BC8             0x71        0x6e                          movl     %eax, %ecx                0x1                              
0xad3e  dist1+182:               0FB613           0x71        0x70                          movzbl   (%ebx), %edx              0x1                              
0xad41                           0FB601           0x72        0x6a                          movzbl   (%ecx), %eax              0x1                              
0xad44                           8D440201         0x72        0x6e                          leal     0x1(%edx, %eax, 1), %eax  0x1                              
0xad48                           0FB617           0x72        0x70                          movzbl   (%edi), %edx              0x1                              
0xad4b                           D1E8             0x72        0x6a                          shrl     0x1, %eax                 0x1                              
0xad4d                           2BC2             0x72        0x6e                          subl     %edx, %eax                0x1                              
0xad4f                           99               0x72        0x70                          cltd                               0x1                              
0xad50                           83C601           0x72        0x6a                          addl     $0x1, %esi                0x1                              
0xad53                           33C2             0x72        0x6e                          xorl     %edx, %eax                0x1                              
0xad55                           2BC2             0x72        0x70                          subl     %edx, %eax                0x1                              
0xad57                           0FB65301         0x72        0x6a                          movzbl   0x1(%ebx), %edx           0x1                              
0xad5b                           03E8             0x72        0x6e                          addl     %eax, %ebp                0x1                              
0xad5d                           0FB64101         0x72        0x70                          movzbl   0x1(%ecx), %eax           0x1                              
0xad61                           8D440201         0x71        0x6a                          leal     0x1(%edx, %eax, 1), %eax  0x1                              
0xad65                           0FB65701         0x71        0x6e                          movzbl   0x1(%edi), %edx           0x1                              
0xad69                           D1E8             0x71        0x70                          shrl     0x1, %eax                 0x1                              
0xad6b                           2BC2             0x71        0x6a                          subl     %edx, %eax                0x1                              
0xad6d                           99               0x71        0x6e                          cltd                               0x1                              
0xad6e                           33C2             0x71        0x70                          xorl     %edx, %eax                0x1                              
0xad70                           2BC2             0x71        0x6a                          subl     %edx, %eax                0x1                              
0xad72                           0FB65302         0x71        0x6e                          movzbl   0x2(%ebx), %edx           0x1                              
0xad76                           03E8             0x71        0x70                          addl     %eax, %ebp                0x1                              
0xad78                           0FB64102         0x71        0x6a                          movzbl   0x2(%ecx), %eax           0x1                              
0xad7c                           8D440201         0x71        0x6e                          leal     0x1(%edx, %eax, 1), %eax  0x1                              
0xad80                           0FB65702         0x72        0x70                          movzbl   0x2(%edi), %edx           0x1                              
0xad84                           D1E8             0x72        0x6a                          shrl     0x1, %eax                 0x1                              
0xad86                           2BC2             0x72        0x6e                          subl     %edx, %eax                0x1                              
0xad88                           99               0x72        0x70                          cltd                               0x1                              
0xad89                           33C2             0x72        0x6a                          xorl     %edx, %eax                0x1                              
0xad8b                           2BC2             0x72        0x6e                          subl     %edx, %eax                0x1                              
0xad8d                           0FB65303         0x72        0x70                          movzbl   0x3(%ebx), %edx           0x1                              
0xad91                           03E8             0x72        0x6a                          addl     %eax, %ebp                0x1                              
0xad93                           0FB64103         0x72        0x6e                          movzbl   0x3(%ecx), %eax           0x1                              
0xad97                           8D440201         0x72        0x70                          leal     0x1(%edx, %eax, 1), %eax  0x1                              
0xad9b                           0FB65703         0x72        0x6a                          movzbl   0x3(%edi), %edx           0x1                              
0xad9f                           D1E8             0x72        0x6e                          shrl     0x1, %eax                 0x1                              
0xada1                           2BC2             0x71        0x70                          subl     %edx, %eax                0x1                              
0xada3                           99               0x71        0x6a                          cltd                               0x1                              
0xada4                           33C2             0x71        0x6e                          xorl     %edx, %eax                0x1                              
0xada6                           2BC2             0x71        0x70                          subl     %edx, %eax                0x1                              
0xada8                           0FB65304         0x71        0x6a                          movzbl   0x4(%ebx), %edx           0x1                              
0xadac                           03E8             0x71        0x6e                          addl     %eax, %ebp                0x1                              
0xadae                           0FB64104         0x71        0x70                          movzbl   0x4(%ecx), %eax           0x1                              
0xadb2                           8D440201         0x71        0x6a                          leal     0x1(%edx, %eax, 1), %eax  0x1                              
0xadb6                           0FB65704         0x71        0x6e                          movzbl   0x4(%edi), %edx           0x1                              
0xadba                           D1E8             0x71        0x70                          shrl     0x1, %eax                 0x1                              
0xadbc                           2BC2             0x71        0x6a                          subl     %edx, %eax                0x1                              
0xadbe                           99               0x71        0x6e                          cltd                               0x1                              
0xadbf                           33C2             0x71        0x70                          xorl     %edx, %eax                0x1                              
0xadc1                           2BC2             0x72        0x6a                          subl     %edx, %eax                0x1                              
0xadc3                           0FB65305         0x72        0x6e                          movzbl   0x5(%ebx), %edx           0x1                              
0xadc7                           03E8             0x72        0x70                          addl     %eax, %ebp                0x1                              
0xadc9                           0FB64105         0x72        0x6a                          movzbl   0x5(%ecx), %eax           0x1                              
0xadcd                           8D440201         0x72        0x6e                          leal     0x1(%edx, %eax, 1), %eax  0x1                              
0xadd1                           0FB65705         0x72        0x70                          movzbl   0x5(%edi), %edx           0x1                              
0xadd5                           D1E8             0x72        0x6a                          shrl     0x1, %eax                 0x1                              
0xadd7                           2BC2             0x72        0x6e                          subl     %edx, %eax                0x1                              
0xadd9                           99               0x72        0x70                          cltd                               0x1                              
0xadda                           33C2             0x72        0x6a                          xorl     %edx, %eax                0x1                              
0xaddc                           2BC2             0x72        0x6e                          subl     %edx, %eax                0x1                              
0xadde                           0FB65306         0x72        0x70                          movzbl   0x6(%ebx), %edx           0x1                              
0xade2                           03E8             0x71        0x6a                          addl     %eax, %ebp                0x1                              
0xade4                           0FB64106         0x71        0x6e                          movzbl   0x6(%ecx), %eax           0x1                              
0xade8                           8D440201         0x71        0x70                          leal     0x1(%edx, %eax, 1), %eax  0x1                              
0xadec                           0FB65706         0x71        0x6a                          movzbl   0x6(%edi), %edx           0x1                              
0xadf0                           D1E8             0x71        0x6e                          shrl     0x1, %eax                 0x1                              
0xadf2                           2BC2             0x71        0x70                          subl     %edx, %eax                0x1                              
0xadf4                           99               0x71        0x6a                          cltd                               0x1                              
0xadf5                           33C2             0x71        0x6e                          xorl     %edx, %eax                0x1                              
0xadf7                           2BC2             0x71        0x70                          subl     %edx, %eax                0x1                              
0xadf9                           0FB65307         0x71        0x6a                          movzbl   0x7(%ebx), %edx           0x1                              
0xadfd                           03E8             0x71        0x6e                          addl     %eax, %ebp                0x1                              
0xadff                           0FB64107         0x71        0x70                          movzbl   0x7(%ecx), %eax           0x1                              
0xae03                           8D440201         0x72        0x6a                          leal     0x1(%edx, %eax, 1), %eax  0x1                              
0xae07                           0FB65707         0x72        0x6e                          movzbl   0x7(%edi), %edx           0x1                              
0xae0b                           D1E8             0x72        0x70                          shrl     0x1, %eax                 0x1                              
0xae0d                           2BC2             0x72        0x6a                          subl     %edx, %eax                0x1                              
0xae0f                           99               0x72        0x6e                          cltd                               0x1                              
0xae10                           33C2             0x72        0x70                          xorl     %edx, %eax                0x1                              
0xae12                           2BC2             0x72        0x6a                          subl     %edx, %eax                0x1                              
0xae14                           0FB65308         0x72        0x6e                          movzbl   0x8(%ebx), %edx           0x1                              
0xae18                           03E8             0x72        0x70                          addl     %eax, %ebp                0x1                              
0xae1a                           0FB64108         0x72        0x6a                          movzbl   0x8(%ecx), %eax           0x1                              
0xae1e                           8D440201         0x72        0x6e                          leal     0x1(%edx, %eax, 1), %eax  0x1                              
0xae22                           0FB65708         0x71        0x70                          movzbl   0x8(%edi), %edx           0x1                              
0xae26                           D1E8             0x71        0x6a                          shrl     0x1, %eax                 0x1                              
0xae28                           2BC2             0x71        0x6e                          subl     %edx, %eax                0x1                              
0xae2a                           99               0x71        0x70                          cltd                               0x1                              
0xae2b                           33C2             0x71        0x6a                          xorl     %edx, %eax                0x1                              
0xae2d                           2BC2             0x71        0x6e                          subl     %edx, %eax                0x1                              
0xae2f                           0FB65309         0x71        0x70                          movzbl   0x9(%ebx), %edx           0x1                              
0xae33                           03E8             0x71        0x6a                          addl     %eax, %ebp                0x1                              
0xae35                           0FB64109         0x71        0x6e                          movzbl   0x9(%ecx), %eax           0x1                              
0xae39                           8D440201         0x71        0x70                          leal     0x1(%edx, %eax, 1), %eax  0x1                              
0xae3d                           0FB65709         0x71        0x6a                          movzbl   0x9(%edi), %edx           0x1                              
0xae41                           D1E8             0x72        0x6e                          shrl     0x1, %eax                 0x1                              
0xae43                           2BC2             0x72        0x70                          subl     %edx, %eax                0x1                              
0xae45                           99               0x72        0x6a                          cltd                               0x1                              
0xae46                           33C2             0x72        0x6e                          xorl     %edx, %eax                0x1                              
0xae48                           2BC2             0x72        0x70                          subl     %edx, %eax                0x1                              
0xae4a                           0FB6530A         0x72        0x6a                          movzbl   0xa(%ebx), %edx           0x1                              
0xae4e                           03E8             0x72        0x6e                          addl     %eax, %ebp                0x1                              
0xae50                           0FB6410A         0x72        0x70                          movzbl   0xa(%ecx), %eax           0x1                              
0xae54                           8D440201         0x72        0x6a                          leal     0x1(%edx, %eax, 1), %eax  0x1                              
0xae58                           0FB6570A         0x72        0x6e                          movzbl   0xa(%edi), %edx           0x1                              
0xae5c                           D1E8             0x72        0x70                          shrl     0x1, %eax                 0x1                              
0xae5e                           2BC2             0x72        0x6a                          subl     %edx, %eax                0x1                              
0xae60                           99               0x71        0x6e                          cltd                               0x1                              
0xae61                           33C2             0x71        0x70                          xorl     %edx, %eax                0x1                              
0xae63                           2BC2             0x71        0x6a                          subl     %edx, %eax                0x1                              
0xae65                           0FB6530B         0x71        0x6e                          movzbl   0xb(%ebx), %edx           0x1                              
0xae69                           03E8             0x71        0x70                          addl     %eax, %ebp                0x1                              
0xae6b                           0FB6410B         0x71        0x6a                          movzbl   0xb(%ecx), %eax           0x1                              
0xae6f                           8D440201         0x71        0x6e                          leal     0x1(%edx, %eax, 1), %eax  0x1                              
0xae73                           0FB6570B         0x71        0x70                          movzbl   0xb(%edi), %edx           0x1                              
0xae77                           D1E8             0x71        0x6a                          shrl     0x1, %eax                 0x1                              
0xae79                           2BC2             0x71        0x6e                          subl     %edx, %eax                0x1                              
0xae7b                           99               0x71        0x70                          cltd                               0x1                              
0xae7c                           33C2             0x71        0x6a                          xorl     %edx, %eax                0x1                              
0xae7e                           2BC2             0x71        0x6e                          subl     %edx, %eax                0x1                              
0xae80                           0FB6530C         0x72        0x70                          movzbl   0xc(%ebx), %edx           0x1                              
0xae84                           03E8             0x72        0x6a                          addl     %eax, %ebp                0x1                              
0xae86                           0FB6410C         0x72        0x6e                          movzbl   0xc(%ecx), %eax           0x1                              
0xae8a                           8D440201         0x72        0x70                          leal     0x1(%edx, %eax, 1), %eax  0x1                              
0xae8e                           0FB6570C         0x72        0x6a                          movzbl   0xc(%edi), %edx           0x1                              
0xae92                           D1E8             0x72        0x6e                          shrl     0x1, %eax                 0x1                              
0xae94                           2BC2             0x72        0x70                          subl     %edx, %eax                0x1                              
0xae96                           99               0x72        0x6a                          cltd                               0x1                              
0xae97                           33C2             0x72        0x6e                          xorl     %edx, %eax                0x1                              
0xae99                           2BC2             0x72        0x70                          subl     %edx, %eax                0x1                              
0xae9b                           0FB6530D         0x72        0x6a                          movzbl   0xd(%ebx), %edx           0x1                              
0xae9f                           03E8             0x72        0x6e                          addl     %eax, %ebp                0x1                              
0xaea1                           0FB6410D         0x71        0x70                          movzbl   0xd(%ecx), %eax           0x1                              
0xaea5                           8D440201         0x71        0x6a                          leal     0x1(%edx, %eax, 1), %eax  0x1                              
0xaea9                           0FB6570D         0x71        0x6e                          movzbl   0xd(%edi), %edx           0x1                              
0xaead                           D1E8             0x71        0x70                          shrl     0x1, %eax                 0x1                              
0xaeaf                           2BC2             0x71        0x6a                          subl     %edx, %eax                0x1                              
0xaeb1                           99               0x71        0x6e                          cltd                               0x1                              
0xaeb2                           33C2             0x71        0x70                          xorl     %edx, %eax                0x1                              
0xaeb4                           2BC2             0x71        0x6a                          subl     %edx, %eax                0x1                              
0xaeb6                           0FB6530E         0x71        0x6e                          movzbl   0xe(%ebx), %edx           0x1                              
0xaeba                           0FB65B0F         0x71        0x70                          movzbl   0xf(%ebx), %ebx           0x1                              
0xaebe                           03E8             0x71        0x6a                          addl     %eax, %ebp                0x1                              
0xaec0                           0FB6410E         0x72        0x6e                          movzbl   0xe(%ecx), %eax           0x1                              
0xaec4                           8D440201         0x72        0x70                          leal     0x1(%edx, %eax, 1), %eax  0x1                              
0xaec8                           0FB6570E         0x72        0x6a                          movzbl   0xe(%edi), %edx           0x1                              
0xaecc                           D1E8             0x72        0x6e                          shrl     0x1, %eax                 0x1                              
0xaece                           2BC2             0x72        0x70                          subl     %edx, %eax                0x1                              
0xaed0                           99               0x72        0x6a                          cltd                               0x1                              
0xaed1                           33C2             0x72        0x6e                          xorl     %edx, %eax                0x1                              
0xaed3                           2BC2             0x72        0x70                          subl     %edx, %eax                0x1                              
0xaed5                           0FB6510F         0x72        0x6a                          movzbl   0xf(%ecx), %edx           0x1                              
0xaed9                           03E8             0x72        0x6e                          addl     %eax, %ebp                0x1                              
0xaedb                           8D441301         0x72        0x70                          leal     0x1(%ebx, %edx, 1), %eax  0x1                              
0xaedf                           0FB6570F         0x72        0x6a                          movzbl   0xf(%edi), %edx           0x1                              
0xaee3                           D1E8             0x71        0x6e                          shrl     0x1, %eax                 0x1                              
0xaee5                           2BC2             0x71        0x70                          subl     %edx, %eax                0x1                              
0xaee7                           99               0x71        0x6a                          cltd                               0x1                              
0xaee8                           8BD9             0x71        0x6e                          movl     %ecx, %ebx                0x1                              
0xaeea                           33C2             0x71        0x70                          xorl     %edx, %eax                0x1                              
0xaeec                           2BC2             0x71        0x6a                          subl     %edx, %eax                0x1                              
0xaeee                           8B542438         0x71        0x6e                          movl     0x38(%esp), %edx          0x1                              
0xaef2                           03E8             0x71        0x70                          addl     %eax, %ebp                0x1                              
0xaef4                           03CA             0x71        0x6a                          addl     %edx, %ecx                0x1                              
0xaef6                           03FA             0x71        0x6e                          addl     %edx, %edi                0x1                              
0xaef8                           8B542444         0x71        0x70                          movl     0x44(%esp), %edx          0x1                              
0xaefc                           3BF2             0x71        0x6a                          cmpl     %edx, %esi                0x1                              
0xaefe                           0F8C3AFEFFFF     0x71        0x70                          jnge     dist1+182                 0x1                              0x3
0xaf04  dist1+348:               E903050000       0x72        0x6a                          jmp      dist1+850                 0x1                              0x3
0xaf09  dist1+34d:               85D2             0x72        0x6e                          testl    %edx, %edx                0x1                              
0xaf0b                           0F85A7010000     0x72        0x70                          jnz      dist1+4fc                 0x1                              0x3
0xaf11  dist1+355:               8B742444         0x72        0x6a                          movl     0x44(%esp), %esi          0x1                              
0xaf15                           33ED             0x72        0x6e                          xorl     %ebp, %ebp                0x1                              
0xaf17                           33D2             0x72        0x70                          xorl     %edx, %edx                0x1                              
0xaf19                           85F6             0x72        0x6a                          testl    %esi, %esi                0x1                              
0xaf1b                           0F8EEB040000     0x72        0x70                          jle      dist1+850                 0x1                              0x3
0xaf21  dist1+365:               891424           0x71        0x6a                          movl     %edx, (%esp)              0x2                              
0xaf24  dist1+368:               0FB67B01         0x71        0x6e                          movzbl   0x1(%ebx), %edi           0x1                              
0xaf28                           0FB613           0x71        0x70                          movzbl   (%ebx), %edx              0x1                              
0xaf2b                           0FB67302         0x71        0x6a                          movzbl   0x2(%ebx), %esi           0x1                              
0xaf2f                           8D443A01         0x71        0x6e                          leal     0x1(%edx, %edi, 1), %eax  0x1                              
0xaf33                           0FB611           0x71        0x70                          movzbl   (%ecx), %edx              0x1                              
0xaf36                           D1E8             0x71        0x6a                          shrl     0x1, %eax                 0x1                              
0xaf38                           2BC2             0x71        0x6e                          subl     %edx, %eax                0x1                              
0xaf3a                           99               0x71        0x70                          cltd                               0x1                              
0xaf3b                           33C2             0x71        0x6a                          xorl     %edx, %eax                0x1                              
0xaf3d                           2BC2             0x71        0x6e                          subl     %edx, %eax                0x1                              
0xaf3f                           0FB65101         0x71        0x70                          movzbl   0x1(%ecx), %edx           0x1                              
0xaf43                           03E8             0x72        0x6a                          addl     %eax, %ebp                0x1                              
0xaf45                           8D443701         0x72        0x6e                          leal     0x1(%edi, %esi, 1), %eax  0x1                              
0xaf49                           0FB67B03         0x72        0x70                          movzbl   0x3(%ebx), %edi           0x1                              
0xaf4d                           D1E8             0x72        0x6a                          shrl     0x1, %eax                 0x1                              
0xaf4f                           2BC2             0x72        0x6e                          subl     %edx, %eax                0x1                              
0xaf51                           99               0x72        0x70                          cltd                               0x1                              
0xaf52                           33C2             0x72        0x6a                          xorl     %edx, %eax                0x1                              
0xaf54                           2BC2             0x72        0x6e                          subl     %edx, %eax                0x1                              
0xaf56                           0FB65102         0x72        0x70                          movzbl   0x2(%ecx), %edx           0x1                              
0xaf5a                           03E8             0x72        0x6a                          addl     %eax, %ebp                0x1                              
0xaf5c                           8D443E01         0x72        0x6e                          leal     0x1(%esi, %edi, 1), %eax  0x1                              
0xaf60                           0FB67304         0x71        0x70                          movzbl   0x4(%ebx), %esi           0x1                              
0xaf64                           D1E8             0x71        0x6a                          shrl     0x1, %eax                 0x1                              
0xaf66                           2BC2             0x71        0x6e                          subl     %edx, %eax                0x1                              
0xaf68                           99               0x71        0x70                          cltd                               0x1                              
0xaf69                           33C2             0x71        0x6a                          xorl     %edx, %eax                0x1                              
0xaf6b                           2BC2             0x71        0x6e                          subl     %edx, %eax                0x1                              
0xaf6d                           0FB65103         0x71        0x70                          movzbl   0x3(%ecx), %edx           0x1                              
0xaf71                           03E8             0x71        0x6a                          addl     %eax, %ebp                0x1                              
0xaf73                           8D443701         0x71        0x6e                          leal     0x1(%edi, %esi, 1), %eax  0x1                              
0xaf77                           0FB67B05         0x71        0x70                          movzbl   0x5(%ebx), %edi           0x1                              
0xaf7b                           D1E8             0x71        0x6a                          shrl     0x1, %eax                 0x1                              
0xaf7d                           2BC2             0x71        0x6e                          subl     %edx, %eax                0x1                              
0xaf7f                           99               0x71        0x70                          cltd                               0x1                              
0xaf80                           33C2             0x72        0x6a                          xorl     %edx, %eax                0x1                              
0xaf82                           2BC2             0x72        0x6e                          subl     %edx, %eax                0x1                              
0xaf84                           0FB65104         0x72        0x70                          movzbl   0x4(%ecx), %edx           0x1                              
0xaf88                           03E8             0x72        0x6a                          addl     %eax, %ebp                0x1                              
0xaf8a                           8D443E01         0x72        0x6e                          leal     0x1(%esi, %edi, 1), %eax  0x1                              
0xaf8e                           0FB67306         0x72        0x70                          movzbl   0x6(%ebx), %esi           0x1                              
0xaf92                           D1E8             0x72        0x6a                          shrl     0x1, %eax                 0x1                              
0xaf94                           2BC2             0x72        0x6e                          subl     %edx, %eax                0x1                              
0xaf96                           99               0x72        0x70                          cltd                               0x1                              
0xaf97                           33C2             0x72        0x6a                          xorl     %edx, %eax                0x1                              
0xaf99                           2BC2             0x72        0x6e                          subl     %edx, %eax                0x1                              
0xaf9b                           0FB65105         0x72        0x70                          movzbl   0x5(%ecx), %edx           0x1                              
0xaf9f                           03E8             0x72        0x6a                          addl     %eax, %ebp                0x1                              
0xafa1                           8D443701         0x71        0x6e                          leal     0x1(%edi, %esi, 1), %eax  0x1                              
0xafa5                           0FB67B07         0x71        0x70                          movzbl   0x7(%ebx), %edi           0x1                              
0xafa9                           D1E8             0x71        0x6a                          shrl     0x1, %eax                 0x1                              
0xafab                           2BC2             0x71        0x6e                          subl     %edx, %eax                0x1                              
0xafad                           99               0x71        0x70                          cltd                               0x1                              
0xafae                           33C2             0x71        0x6a                          xorl     %edx, %eax                0x1                              
0xafb0                           2BC2             0x71        0x6e                          subl     %edx, %eax                0x1                              
0xafb2                           0FB65106         0x71        0x70                          movzbl   0x6(%ecx), %edx           0x1                              
0xafb6                           03E8             0x71        0x6a                          addl     %eax, %ebp                0x1                              
0xafb8                           8D443E01         0x71        0x6e                          leal     0x1(%esi, %edi, 1), %eax  0x1                              
0xafbc                           0FB67308         0x71        0x70                          movzbl   0x8(%ebx), %esi           0x1                              
0xafc0                           D1E8             0x72        0x6a                          shrl     0x1, %eax                 0x1                              
0xafc2                           2BC2             0x72        0x6e                          subl     %edx, %eax                0x1                              
0xafc4                           99               0x72        0x70                          cltd                               0x1                              
0xafc5                           33C2             0x72        0x6a                          xorl     %edx, %eax                0x1                              
0xafc7                           2BC2             0x72        0x6e                          subl     %edx, %eax                0x1                              
0xafc9                           0FB65107         0x72        0x70                          movzbl   0x7(%ecx), %edx           0x1                              
0xafcd                           03E8             0x72        0x6a                          addl     %eax, %ebp                0x1                              
0xafcf                           8D443701         0x72        0x6e                          leal     0x1(%edi, %esi, 1), %eax  0x1                              
0xafd3                           0FB67B09         0x72        0x70                          movzbl   0x9(%ebx), %edi           0x1                              
0xafd7                           D1E8             0x72        0x6a                          shrl     0x1, %eax                 0x1                              
0xafd9                           2BC2             0x72        0x6e                          subl     %edx, %eax                0x1                              
0xafdb                           99               0x72        0x70                          cltd                               0x1                              
0xafdc                           33C2             0x72        0x6a                          xorl     %edx, %eax                0x1                              
0xafde                           2BC2             0x72        0x6e                          subl     %edx, %eax                0x1                              
0xafe0                           0FB65108         0x71        0x70                          movzbl   0x8(%ecx), %edx           0x1                              
0xafe4                           03E8             0x71        0x6a                          addl     %eax, %ebp                0x1                              
0xafe6                           8D443E01         0x71        0x6e                          leal     0x1(%esi, %edi, 1), %eax  0x1                              
0xafea                           0FB6730A         0x71        0x70                          movzbl   0xa(%ebx), %esi           0x1                              
0xafee                           D1E8             0x71        0x6a                          shrl     0x1, %eax                 0x1                              
0xaff0                           2BC2             0x71        0x6e                          subl     %edx, %eax                0x1                              
0xaff2                           99               0x71        0x70                          cltd                               0x1                              
0xaff3                           33C2             0x71        0x6a                          xorl     %edx, %eax                0x1                              
0xaff5                           2BC2             0x71        0x6e                          subl     %edx, %eax                0x1                              
0xaff7                           0FB65109         0x71        0x70                          movzbl   0x9(%ecx), %edx           0x1                              
0xaffb                           03E8             0x71        0x6a                          addl     %eax, %ebp                0x1                              
0xaffd                           8D443701         0x71        0x6e                          leal     0x1(%edi, %esi, 1), %eax  0x1                              
0xb001                           0FB67B0B         0x72        0x70                          movzbl   0xb(%ebx), %edi           0x1                              
0xb005                           D1E8             0x72        0x6a                          shrl     0x1, %eax                 0x1                              
0xb007                           2BC2             0x72        0x6e                          subl     %edx, %eax                0x1                              
0xb009                           99               0x72        0x70                          cltd                               0x1                              
0xb00a                           33C2             0x72        0x6a                          xorl     %edx, %eax                0x1                              
0xb00c                           2BC2             0x72        0x6e                          subl     %edx, %eax                0x1                              
0xb00e                           0FB6510A         0x72        0x70                          movzbl   0xa(%ecx), %edx           0x1                              
0xb012                           03E8             0x72        0x6a                          addl     %eax, %ebp                0x1                              
0xb014                           8D443E01         0x72        0x6e                          leal     0x1(%esi, %edi, 1), %eax  0x1                              
0xb018                           0FB6730C         0x72        0x70                          movzbl   0xc(%ebx), %esi           0x1                              
0xb01c                           D1E8             0x72        0x6a                          shrl     0x1, %eax                 0x1                              
0xb01e                           2BC2             0x72        0x6e                          subl     %edx, %eax                0x1                              
0xb020                           99               0x71        0x70                          cltd                               0x1                              
0xb021                           33C2             0x71        0x6a                          xorl     %edx, %eax                0x1                              
0xb023                           2BC2             0x71        0x6e                          subl     %edx, %eax                0x1                              
0xb025                           0FB6510B         0x71        0x70                          movzbl   0xb(%ecx), %edx           0x1                              
0xb029                           03E8             0x71        0x6a                          addl     %eax, %ebp                0x1                              
0xb02b                           8D443701         0x71        0x6e                          leal     0x1(%edi, %esi, 1), %eax  0x1                              
0xb02f                           0FB67B0D         0x71        0x70                          movzbl   0xd(%ebx), %edi           0x1                              
0xb033                           D1E8             0x71        0x6a                          shrl     0x1, %eax                 0x1                              
0xb035                           2BC2             0x71        0x6e                          subl     %edx, %eax                0x1                              
0xb037                           99               0x71        0x70                          cltd                               0x1                              
0xb038                           33C2             0x71        0x6a                          xorl     %edx, %eax                0x1                              
0xb03a                           2BC2             0x71        0x6e                          subl     %edx, %eax                0x1                              
0xb03c                           0FB6510C         0x71        0x70                          movzbl   0xc(%ecx), %edx           0x1                              
0xb040                           03E8             0x72        0x6a                          addl     %eax, %ebp                0x1                              
0xb042                           8D443E01         0x72        0x6e                          leal     0x1(%esi, %edi, 1), %eax  0x1                              
0xb046                           0FB6730E         0x72        0x70                          movzbl   0xe(%ebx), %esi           0x1                              
0xb04a                           D1E8             0x72        0x6a                          shrl     0x1, %eax                 0x1                              
0xb04c                           2BC2             0x72        0x6e                          subl     %edx, %eax                0x1                              
0xb04e                           99               0x72        0x70                          cltd                               0x1                              
0xb04f                           33C2             0x72        0x6a                          xorl     %edx, %eax                0x1                              
0xb051                           2BC2             0x72        0x6e                          subl     %edx, %eax                0x1                              
0xb053                           0FB6510D         0x72        0x70                          movzbl   0xd(%ecx), %edx           0x1                              
0xb057                           03E8             0x72        0x6a                          addl     %eax, %ebp                0x1                              
0xb059                           8D443701         0x72        0x6e                          leal     0x1(%edi, %esi, 1), %eax  0x1                              
0xb05d                           0FB67B0F         0x72        0x70                          movzbl   0xf(%ebx), %edi           0x1                              
0xb061                           D1E8             0x71        0x6a                          shrl     0x1, %eax                 0x1                              
0xb063                           2BC2             0x71        0x6e                          subl     %edx, %eax                0x1                              
0xb065                           99               0x71        0x70                          cltd                               0x1                              
0xb066                           33C2             0x71        0x6a                          xorl     %edx, %eax                0x1                              
0xb068                           2BC2             0x71        0x6e                          subl     %edx, %eax                0x1                              
0xb06a                           0FB6510E         0x71        0x70                          movzbl   0xe(%ecx), %edx           0x1                              
0xb06e                           03E8             0x71        0x6a                          addl     %eax, %ebp                0x1                              
0xb070                           8D443E01         0x71        0x6e                          leal     0x1(%esi, %edi, 1), %eax  0x1                              
0xb074                           D1E8             0x71        0x70                          shrl     0x1, %eax                 0x1                              
0xb076                           2BC2             0x71        0x6a                          subl     %edx, %eax                0x1                              
0xb078                           8B742444         0x71        0x6e                          movl     0x44(%esp), %esi          0x1                              
0xb07c                           99               0x71        0x70                          cltd                               0x1                              
0xb07d                           33C2             0x71        0x6a                          xorl     %edx, %eax                0x1                              
0xb07f                           2BC2             0x71        0x6e                          subl     %edx, %eax                0x1                              
0xb081                           0FB65310         0x72        0x70                          movzbl   0x10(%ebx), %edx          0x1                              
0xb085                           03E8             0x72        0x6a                          addl     %eax, %ebp                0x1                              
0xb087                           8D441701         0x72        0x6e                          leal     0x1(%edi, %edx, 1), %eax  0x1                              
0xb08b                           0FB6510F         0x72        0x70                          movzbl   0xf(%ecx), %edx           0x1                              
0xb08f                           D1E8             0x72        0x6a                          shrl     0x1, %eax                 0x1                              
0xb091                           2BC2             0x72        0x6e                          subl     %edx, %eax                0x1                              
0xb093                           99               0x72        0x70                          cltd                               0x1                              
0xb094                           33C2             0x72        0x6a                          xorl     %edx, %eax                0x1                              
0xb096                           2BC2             0x72        0x6e                          subl     %edx, %eax                0x1                              
0xb098                           8B542438         0x72        0x70                          movl     0x38(%esp), %edx          0x1                              
0xb09c                           03E8             0x72        0x6a                          addl     %eax, %ebp                0x1                              
0xb09e                           03DA             0x72        0x6e                          addl     %edx, %ebx                0x1                              
0xb0a0                           03CA             0x71        0x70                          addl     %edx, %ecx                0x1                              
0xb0a2                           8B1424           0x71        0x6a                          movl     (%esp), %edx              0x1                              
0xb0a5                           83C201           0x71        0x70                          addl     $0x1, %edx                0x1                              
0xb0a8                           891424           0x71        0x6a                          movl     %edx, (%esp)              0x2                              
0xb0ab                           3BD6             0x71        0x6e                          cmpl     %esi, %edx                0x1                              
0xb0ad                           0F8C71FEFFFF     0x71        0x70                          jnge     dist1+368                 0x1                              0x3
0xb0b3  dist1+4f7:               E954030000       0x71        0x6a                          jmp      dist1+850                 0x1                              0x3
0xb0b8  dist1+4fc:               8B442444         0x71        0x6e                          movl     0x44(%esp), %eax          0x1                              
0xb0bc                           33ED             0x71        0x70                          xorl     %ebp, %ebp                0x1                              
0xb0be                           8D341F           0x71        0x6a                          leal     (%edi, %ebx, 1), %esi     0x1                              
0xb0c1                           33D2             0x72        0x6e                          xorl     %edx, %edx                0x1                              
0xb0c3                           85C0             0x72        0x70                          testl    %eax, %eax                0x1                              
0xb0c5                           0F8E41030000     0x72                                      jle      dist1+850                 0x1                              0x3
0xb0cb  dist1+50f:               891424           0x72                                      movl     %edx, (%esp)              0x2                              
0xb0ce                           895C2404         0x72        0x6a                          movl     %ebx, 0x4(%esp)           0x2                              
0xb0d2  dist1+516:               8B5C2404         0x72        0x6e                          movl     0x4(%esp), %ebx           0x1                              
0xb0d6                           0FB64301         0x72        0x70                          movzbl   0x1(%ebx), %eax           0x1                              
0xb0da                           0FB65601         0x72                                      movzbl   0x1(%esi), %edx           0x1                              
0xb0de                           89742408         0x72                                      movl     %esi, 0x8(%esp)           0x2                              
0xb0e2                           8944240C         0x71                                      movl     %eax, 0xc(%esp)           0x2                              
0xb0e6                           89542410         0x71        0x6a                          movl     %edx, 0x10(%esp)          0x2                              
0xb0ea                           0FB613           0x71        0x6e                          movzbl   (%ebx), %edx              0x1                              
0xb0ed                           03D0             0x71        0x70                          addl     %eax, %edx                0x1                              
0xb0ef                           0FB606           0x71        0x6a                          movzbl   (%esi), %eax              0x1                              
0xb0f2                           03D0             0x71        0x6e                          addl     %eax, %edx                0x1                              
0xb0f4                           8B442410         0x71        0x70                          movl     0x10(%esp), %eax          0x1                              
0xb0f8                           8D7C0202         0x71        0x6a                          leal     0x2(%edx, %eax, 1), %edi  0x1                              
0xb0fc                           0FB611           0x71        0x6e                          movzbl   (%ecx), %edx              0x1                              
0xb0ff                           C1EF02           0x71        0x70                          shrl     $0x2, %edi                0x1                              
0xb102                           2BFA             0x72        0x6a                          subl     %edx, %edi                0x1                              
0xb104                           8BC7             0x72        0x6e                          movl     %edi, %eax                0x1                              
0xb106                           99               0x72        0x70                          cltd                               0x1                              
0xb107                           33FA             0x72        0x6a                          xorl     %edx, %edi                0x1                              
0xb109                           2BFA             0x72        0x6e                          subl     %edx, %edi                0x1                              
0xb10b                           0FB65602         0x72        0x70                          movzbl   0x2(%esi), %edx           0x1                              
0xb10f                           89542418         0x72        0x6a                          movl     %edx, 0x18(%esp)          0x2                              
0xb113                           8B54240C         0x72        0x6e                          movl     0xc(%esp), %edx           0x1                              
0xb117                           03FD             0x72        0x70                          addl     %ebp, %edi                0x1                              
0xb119                           0FB66B02         0x72                                      movzbl   0x2(%ebx), %ebp           0x1                              
0xb11d                           896C2414         0x72        0x6a                          movl     %ebp, 0x14(%esp)          0x2                              
0xb121                           03D5             0x71        0x70                          addl     %ebp, %edx                0x1                              
0xb123                           03542410         0x71        0x6a                          addl     0x10(%esp), %edx          0x2                              
0xb127                           8B6C2418         0x71        0x6e                          movl     0x18(%esp), %ebp          0x1                              
0xb12b                           8D6C2A02         0x71        0x70                          leal     0x2(%edx, %ebp, 1), %ebp  0x1                              
0xb12f                           0FB65101         0x71        0x6a                          movzbl   0x1(%ecx), %edx           0x1                              
0xb133                           C1ED02           0x71        0x6e                          shrl     $0x2, %ebp                0x1                              
0xb136                           2BEA             0x71        0x70                          subl     %edx, %ebp                0x1                              
0xb138                           8BC5             0x71        0x6a                          movl     %ebp, %eax                0x1                              
0xb13a                           99               0x71        0x6e                          cltd                               0x1                              
0xb13b                           33EA             0x71        0x70                          xorl     %edx, %ebp                0x1                              
0xb13d                           2BEA             0x71        0x6a                          subl     %edx, %ebp                0x1                              
0xb13f                           03EF             0x71        0x6e                          addl     %edi, %ebp                0x1                              
0xb141                           8BD6             0x72        0x70                          movl     %esi, %edx                0x1                              
0xb143                           0FB67B03         0x72        0x6a                          movzbl   0x3(%ebx), %edi           0x1                              
0xb147                           0FB67203         0x72        0x6e                          movzbl   0x3(%edx), %esi           0x1                              
0xb14b                           8B542414         0x72        0x70                          movl     0x14(%esp), %edx          0x1                              
0xb14f                           89742410         0x72        0x6a                          movl     %esi, 0x10(%esp)          0x2                              
0xb153                           03D7             0x72        0x70                          addl     %edi, %edx                0x1                              
0xb155                           03542418         0x72        0x6a                          addl     0x18(%esp), %edx          0x2                              
0xb159                           8D743202         0x72        0x6e                          leal     0x2(%edx, %esi, 1), %esi  0x1                              
0xb15d                           0FB65102         0x72        0x70                          movzbl   0x2(%ecx), %edx           0x1                              
0xb161                           C1EE02           0x71        0x6a                          shrl     $0x2, %esi                0x1                              
0xb164                           2BF2             0x71        0x6e                          subl     %edx, %esi                0x1                              
0xb166                           8BC6             0x71        0x70                          movl     %esi, %eax                0x1                              
0xb168                           99               0x71        0x6a                          cltd                               0x1                              
0xb169                           33F2             0x71        0x6e                          xorl     %edx, %esi                0x1                              
0xb16b                           2BF2             0x71        0x70                          subl     %edx, %esi                0x1                              
0xb16d                           0FB65304         0x71                                      movzbl   0x4(%ebx), %edx           0x1                              
0xb171                           89542418         0x71        0x6a                          movl     %edx, 0x18(%esp)          0x2                              
0xb175                           03F5             0x71        0x6e                          addl     %ebp, %esi                0x1                              
0xb177                           8B542408         0x71        0x70                          movl     0x8(%esp), %edx           0x1                              
0xb17b                           037C2418         0x71        0x6a                          addl     0x18(%esp), %edi          0x2                              
0xb17f                           0FB65204         0x71        0x70                          movzbl   0x4(%edx), %edx           0x1                              
0xb183                           037C2410         0x72                                      addl     0x10(%esp), %edi          0x2                              
0xb187                           89542414         0x72        0x6a                          movl     %edx, 0x14(%esp)          0x2                              
0xb18b                           8D6C1702         0x72        0x6e                          leal     0x2(%edi, %edx, 1), %ebp  0x1                              
0xb18f                           0FB65103         0x72        0x70                          movzbl   0x3(%ecx), %edx           0x1                              
0xb193                           0FB67B05         0x72        0x6a                          movzbl   0x5(%ebx), %edi           0x1                              
0xb197                           C1ED02           0x72        0x6e                          shrl     $0x2, %ebp                0x1                              
0xb19a                           2BEA             0x72        0x70                          subl     %edx, %ebp                0x1                              
0xb19c                           8BC5             0x72        0x6a                          movl     %ebp, %eax                0x1                              
0xb19e                           99               0x72        0x6e                          cltd                               0x1                              
0xb19f                           33EA             0x72        0x70                          xorl     %edx, %ebp                0x1                              
0xb1a1                           2BEA             0x71        0x6a                          subl     %edx, %ebp                0x1                              
0xb1a3                           8B542408         0x71        0x6e                          movl     0x8(%esp), %edx           0x1                              
0xb1a7                           03EE             0x71        0x70                          addl     %esi, %ebp                0x1                              
0xb1a9                           0FB67205         0x71        0x6a                          movzbl   0x5(%edx), %esi           0x1                              
0xb1ad                           8B542418         0x71        0x70                          movl     0x18(%esp), %edx          0x1                              
0xb1b1                           89742410         0x71        0x6a                          movl     %esi, 0x10(%esp)          0x2                              
0xb1b5                           03D7             0x71        0x70                          addl     %edi, %edx                0x1                              
0xb1b7                           03542414         0x71        0x6a                          addl     0x14(%esp), %edx          0x2                              
0xb1bb                           8D743202         0x71        0x6e                          leal     0x2(%edx, %esi, 1), %esi  0x1                              
0xb1bf                           0FB65104         0x71        0x70                          movzbl   0x4(%ecx), %edx           0x1                              
0xb1c3                           C1EE02           0x72        0x6a                          shrl     $0x2, %esi                0x1                              
0xb1c6                           2BF2             0x72        0x6e                          subl     %edx, %esi                0x1                              
0xb1c8                           8BC6             0x72        0x70                          movl     %esi, %eax                0x1                              
0xb1ca                           99               0x72        0x6a                          cltd                               0x1                              
0xb1cb                           33F2             0x72        0x6e                          xorl     %edx, %esi                0x1                              
0xb1cd                           2BF2             0x72        0x70                          subl     %edx, %esi                0x1                              
0xb1cf                           0FB65306         0x72                                      movzbl   0x6(%ebx), %edx           0x1                              
0xb1d3                           89542418         0x72        0x6a                          movl     %edx, 0x18(%esp)          0x2                              
0xb1d7                           03F5             0x72        0x6e                          addl     %ebp, %esi                0x1                              
0xb1d9                           8B542408         0x72        0x70                          movl     0x8(%esp), %edx           0x1                              
0xb1dd                           037C2418         0x72        0x6a                          addl     0x18(%esp), %edi          0x2                              
0xb1e1                           0FB65206         0x71        0x70                          movzbl   0x6(%edx), %edx           0x1                              
0xb1e5                           037C2410         0x71                                      addl     0x10(%esp), %edi          0x2                              
0xb1e9                           89542414         0x71        0x6a                          movl     %edx, 0x14(%esp)          0x2                              
0xb1ed                           8D6C1702         0x71        0x6e                          leal     0x2(%edi, %edx, 1), %ebp  0x1                              
0xb1f1                           0FB65105         0x71        0x70                          movzbl   0x5(%ecx), %edx           0x1                              
0xb1f5                           0FB67B07         0x71        0x6a                          movzbl   0x7(%ebx), %edi           0x1                              
0xb1f9                           C1ED02           0x71        0x6e                          shrl     $0x2, %ebp                0x1                              
0xb1fc                           2BEA             0x71        0x70                          subl     %edx, %ebp                0x1                              
0xb1fe                           8BC5             0x71        0x6a                          movl     %ebp, %eax                0x1                              
0xb200                           99               0x72        0x6e                          cltd                               0x1                              
0xb201                           33EA             0x72        0x70                          xorl     %edx, %ebp                0x1                              
0xb203                           2BEA             0x72        0x6a                          subl     %edx, %ebp                0x1                              
0xb205                           8B542408         0x72        0x6e                          movl     0x8(%esp), %edx           0x1                              
0xb209                           03EE             0x72        0x70                          addl     %esi, %ebp                0x1                              
0xb20b                           0FB67207         0x72        0x6a                          movzbl   0x7(%edx), %esi           0x1                              
0xb20f                           8B542418         0x72        0x70                          movl     0x18(%esp), %edx          0x1                              
0xb213                           89742410         0x72        0x6a                          movl     %esi, 0x10(%esp)          0x2                              
0xb217                           03D7             0x72        0x70                          addl     %edi, %edx                0x1                              
0xb219                           03542414         0x72        0x6a                          addl     0x14(%esp), %edx          0x2                              
0xb21d                           8D743202         0x72        0x6e                          leal     0x2(%edx, %esi, 1), %esi  0x1                              
0xb221                           0FB65106         0x71        0x70                          movzbl   0x6(%ecx), %edx           0x1                              
0xb225                           C1EE02           0x71        0x6a                          shrl     $0x2, %esi                0x1                              
0xb228                           2BF2             0x71        0x6e                          subl     %edx, %esi                0x1                              
0xb22a                           8BC6             0x71        0x70                          movl     %esi, %eax                0x1                              
0xb22c                           99               0x71        0x6a                          cltd                               0x1                              
0xb22d                           33F2             0x71        0x6e                          xorl     %edx, %esi                0x1                              
0xb22f                           2BF2             0x71        0x70                          subl     %edx, %esi                0x1                              
0xb231                           0FB65308         0x71                                      movzbl   0x8(%ebx), %edx           0x1                              
0xb235                           89542418         0x71        0x6a                          movl     %edx, 0x18(%esp)          0x2                              
0xb239                           03F5             0x71        0x6e                          addl     %ebp, %esi                0x1                              
0xb23b                           8B542408         0x71        0x70                          movl     0x8(%esp), %edx           0x1                              
0xb23f                           037C2418         0x71        0x6a                          addl     0x18(%esp), %edi          0x2                              
0xb243                           0FB65208         0x72        0x70                          movzbl   0x8(%edx), %edx           0x1                              
0xb247                           037C2410         0x72                                      addl     0x10(%esp), %edi          0x2                              
0xb24b                           89542414         0x72        0x6a                          movl     %edx, 0x14(%esp)          0x2                              
0xb24f                           8D6C1702         0x72        0x6e                          leal     0x2(%edi, %edx, 1), %ebp  0x1                              
0xb253                           0FB65107         0x72        0x70                          movzbl   0x7(%ecx), %edx           0x1                              
0xb257                           0FB67B09         0x72        0x6a                          movzbl   0x9(%ebx), %edi           0x1                              
0xb25b                           C1ED02           0x72        0x6e                          shrl     $0x2, %ebp                0x1                              
0xb25e                           2BEA             0x72        0x70                          subl     %edx, %ebp                0x1                              
0xb260                           8BC5             0x71        0x6a                          movl     %ebp, %eax                0x1                              
0xb262                           99               0x71        0x6e                          cltd                               0x1                              
0xb263                           33EA             0x71        0x70                          xorl     %edx, %ebp                0x1                              
0xb265                           2BEA             0x71        0x6a                          subl     %edx, %ebp                0x1                              
0xb267                           8B542408         0x71        0x6e                          movl     0x8(%esp), %edx           0x1                              
0xb26b                           03EE             0x71        0x70                          addl     %esi, %ebp                0x1                              
0xb26d                           0FB67209         0x71        0x6a                          movzbl   0x9(%edx), %esi           0x1                              
0xb271                           8B542418         0x71        0x70                          movl     0x18(%esp), %edx          0x1                              
0xb275                           89742410         0x71        0x6a                          movl     %esi, 0x10(%esp)          0x2                              
0xb279                           03D7             0x71        0x70                          addl     %edi, %edx                0x1                              
0xb27b                           03542414         0x71        0x6a                          addl     0x14(%esp), %edx          0x2                              
0xb27f                           8D743202         0x71        0x6e                          leal     0x2(%edx, %esi, 1), %esi  0x1                              
0xb283                           0FB65108         0x72        0x70                          movzbl   0x8(%ecx), %edx           0x1                              
0xb287                           C1EE02           0x72        0x6a                          shrl     $0x2, %esi                0x1                              
0xb28a                           2BF2             0x72        0x6e                          subl     %edx, %esi                0x1                              
0xb28c                           8BC6             0x72        0x70                          movl     %esi, %eax                0x1                              
0xb28e                           99               0x72        0x6a                          cltd                               0x1                              
0xb28f                           33F2             0x72        0x6e                          xorl     %edx, %esi                0x1                              
0xb291                           2BF2             0x72        0x70                          subl     %edx, %esi                0x1                              
0xb293                           0FB6530A         0x72                                      movzbl   0xa(%ebx), %edx           0x1                              
0xb297                           89542418         0x72        0x6a                          movl     %edx, 0x18(%esp)          0x2                              
0xb29b                           03F5             0x72        0x6e                          addl     %ebp, %esi                0x1                              
0xb29d                           8B542408         0x72        0x70                          movl     0x8(%esp), %edx           0x1                              
0xb2a1                           037C2418         0x71        0x6a                          addl     0x18(%esp), %edi          0x2                              
0xb2a5                           0FB6520A         0x71        0x70                          movzbl   0xa(%edx), %edx           0x1                              
0xb2a9                           037C2410         0x71                                      addl     0x10(%esp), %edi          0x2                              
0xb2ad                           89542414         0x71        0x6a                          movl     %edx, 0x14(%esp)          0x2                              
0xb2b1                           8D6C1702         0x71        0x6e                          leal     0x2(%edi, %edx, 1), %ebp  0x1                              
0xb2b5                           0FB65109         0x71        0x70                          movzbl   0x9(%ecx), %edx           0x1                              
0xb2b9                           0FB67B0B         0x71        0x6a                          movzbl   0xb(%ebx), %edi           0x1                              
0xb2bd                           C1ED02           0x71        0x6e                          shrl     $0x2, %ebp                0x1                              
0xb2c0                           2BEA             0x72        0x70                          subl     %edx, %ebp                0x1                              
0xb2c2                           8BC5             0x72        0x6a                          movl     %ebp, %eax                0x1                              
0xb2c4                           99               0x72        0x6e                          cltd                               0x1                              
0xb2c5                           33EA             0x72        0x70                          xorl     %edx, %ebp                0x1                              
0xb2c7                           2BEA             0x72        0x6a                          subl     %edx, %ebp                0x1                              
0xb2c9                           8B542408         0x72        0x6e                          movl     0x8(%esp), %edx           0x1                              
0xb2cd                           0FB6520B         0x72        0x70                          movzbl   0xb(%edx), %edx           0x1                              
0xb2d1                           89542410         0x72        0x6a                          movl     %edx, 0x10(%esp)          0x2                              
0xb2d5                           8B542418         0x72        0x6e                          movl     0x18(%esp), %edx          0x1                              
0xb2d9                           03EE             0x72        0x70                          addl     %esi, %ebp                0x1                              
0xb2db                           03D7             0x72                                      addl     %edi, %edx                0x1                              
0xb2dd                           03542414         0x72        0x6a                          addl     0x14(%esp), %edx          0x2                              
0xb2e1                           8B742410         0x71        0x6e                          movl     0x10(%esp), %esi          0x1                              
0xb2e5                           8D743202         0x71        0x70                          leal     0x2(%edx, %esi, 1), %esi  0x1                              
0xb2e9                           0FB6510A         0x71        0x6a                          movzbl   0xa(%ecx), %edx           0x1                              
0xb2ed                           C1EE02           0x71        0x6e                          shrl     $0x2, %esi                0x1                              
0xb2f0                           2BF2             0x71        0x70                          subl     %edx, %esi                0x1                              
0xb2f2                           8BC6             0x71        0x6a                          movl     %esi, %eax                0x1                              
0xb2f4                           99               0x71        0x6e                          cltd                               0x1                              
0xb2f5                           33F2             0x71        0x70                          xorl     %edx, %esi                0x1                              
0xb2f7                           2BF2             0x71        0x6a                          subl     %edx, %esi                0x1                              
0xb2f9                           0FB6530C         0x71        0x70                          movzbl   0xc(%ebx), %edx           0x1                              
0xb2fd                           89542418         0x71        0x6a                          movl     %edx, 0x18(%esp)          0x2                              
0xb301                           03F5             0x72        0x6e                          addl     %ebp, %esi                0x1                              
0xb303                           8B542408         0x72        0x70                          movl     0x8(%esp), %edx           0x1                              
0xb307                           037C2418         0x72        0x6a                          addl     0x18(%esp), %edi          0x2                              
0xb30b                           0FB6520C         0x72        0x70                          movzbl   0xc(%edx), %edx           0x1                              
0xb30f                           037C2410         0x72                                      addl     0x10(%esp), %edi          0x2                              
0xb313                           89542414         0x72        0x6a                          movl     %edx, 0x14(%esp)          0x2                              
0xb317                           8D6C1702         0x72        0x6e                          leal     0x2(%edi, %edx, 1), %ebp  0x1                              
0xb31b                           0FB6510B         0x72        0x70                          movzbl   0xb(%ecx), %edx           0x1                              
0xb31f                           0FB67B0D         0x72        0x6a                          movzbl   0xd(%ebx), %edi           0x1                              
0xb323                           C1ED02           0x71        0x6e                          shrl     $0x2, %ebp                0x1                              
0xb326                           2BEA             0x71        0x70                          subl     %edx, %ebp                0x1                              
0xb328                           8BC5             0x71        0x6a                          movl     %ebp, %eax                0x1                              
0xb32a                           99               0x71        0x6e                          cltd                               0x1                              
0xb32b                           33EA             0x71        0x70                          xorl     %edx, %ebp                0x1                              
0xb32d                           2BEA             0x71        0x6a                          subl     %edx, %ebp                0x1                              
0xb32f                           03EE             0x71        0x6e                          addl     %esi, %ebp                0x1                              
0xb331                           8B542408         0x71        0x70                          movl     0x8(%esp), %edx           0x1                              
0xb335                           0FB6720D         0x71        0x6a                          movzbl   0xd(%edx), %esi           0x1                              
0xb339                           8B542418         0x71        0x70                          movl     0x18(%esp), %edx          0x1                              
0xb33d                           89742410         0x71        0x6a                          movl     %esi, 0x10(%esp)          0x2                              
0xb341                           03D7             0x72        0x70                          addl     %edi, %edx                0x1                              
0xb343                           03542414         0x72        0x6a                          addl     0x14(%esp), %edx          0x2                              
0xb347                           8D743202         0x72        0x6e                          leal     0x2(%edx, %esi, 1), %esi  0x1                              
0xb34b                           0FB6510C         0x72        0x70                          movzbl   0xc(%ecx), %edx           0x1                              
0xb34f                           C1EE02           0x72        0x6a                          shrl     $0x2, %esi                0x1                              
0xb352                           2BF2             0x72        0x6e                          subl     %edx, %esi                0x1                              
0xb354                           8BC6             0x72        0x70                          movl     %esi, %eax                0x1                              
0xb356                           99               0x72        0x6a                          cltd                               0x1                              
0xb357                           33F2             0x72        0x6e                          xorl     %edx, %esi                0x1                              
0xb359                           2BF2             0x72        0x70                          subl     %edx, %esi                0x1                              
0xb35b                           0FB6530E         0x72                                      movzbl   0xe(%ebx), %edx           0x1                              
0xb35f                           89542418         0x72                                      movl     %edx, 0x18(%esp)          0x2                              
0xb363                           037C2418         0x71        0x6a                          addl     0x18(%esp), %edi          0x2                              
0xb367                           03F5             0x71        0x70                          addl     %ebp, %esi                0x1                              
0xb369                           037C2410         0x71        0x6a                          addl     0x10(%esp), %edi          0x2                              
0xb36d                           8B542408         0x71        0x6e                          movl     0x8(%esp), %edx           0x1                              
0xb371                           0FB6520E         0x71        0x70                          movzbl   0xe(%edx), %edx           0x1                              
0xb375                           89542414         0x71        0x6a                          movl     %edx, 0x14(%esp)          0x2                              
0xb379                           8D6C1702         0x71        0x6e                          leal     0x2(%edi, %edx, 1), %ebp  0x1                              
0xb37d                           0FB6510D         0x71        0x70                          movzbl   0xd(%ecx), %edx           0x1                              
0xb381                           C1ED02           0x72        0x6a                          shrl     $0x2, %ebp                0x1                              
0xb384                           2BEA             0x72        0x6e                          subl     %edx, %ebp                0x1                              
0xb386                           8BC5             0x72        0x70                          movl     %ebp, %eax                0x1                              
0xb388                           99               0x72        0x6a                          cltd                               0x1                              
0xb389                           33EA             0x72        0x6e                          xorl     %edx, %ebp                0x1                              
0xb38b                           2BEA             0x72        0x70                          subl     %edx, %ebp                0x1                              
0xb38d                           0FB6530F         0x72                                      movzbl   0xf(%ebx), %edx           0x1                              
0xb391                           89542410         0x72        0x6a                          movl     %edx, 0x10(%esp)          0x2                              
0xb395                           03EE             0x72        0x6e                          addl     %esi, %ebp                0x1                              
0xb397                           8B542408         0x72        0x70                          movl     0x8(%esp), %edx           0x1                              
0xb39b                           0FB6720F         0x72        0x6a                          movzbl   0xf(%edx), %esi           0x1                              
0xb39f                           8B542418         0x72        0x70                          movl     0x18(%esp), %edx          0x1                              
0xb3a3                           03542410         0x71                                      addl     0x10(%esp), %edx          0x2                              
0xb3a7                           03542414         0x71        0x6a                          addl     0x14(%esp), %edx          0x2                              
0xb3ab                           8D7C3202         0x71        0x6e                          leal     0x2(%edx, %esi, 1), %edi  0x1                              
0xb3af                           0FB6510E         0x71        0x70                          movzbl   0xe(%ecx), %edx           0x1                              
0xb3b3                           C1EF02           0x71        0x6a                          shrl     $0x2, %edi                0x1                              
0xb3b6                           2BFA             0x71        0x6e                          subl     %edx, %edi                0x1                              
0xb3b8                           8BC7             0x71        0x70                          movl     %edi, %eax                0x1                              
0xb3ba                           99               0x71        0x6a                          cltd                               0x1                              
0xb3bb                           33FA             0x71        0x6e                          xorl     %edx, %edi                0x1                              
0xb3bd                           2BFA             0x71        0x70                          subl     %edx, %edi                0x1                              
0xb3bf                           0FB65310         0x71        0x6a                          movzbl   0x10(%ebx), %edx          0x1                              
0xb3c3                           8B5C2410         0x72        0x6e                          movl     0x10(%esp), %ebx          0x1                              
0xb3c7                           03FD             0x72        0x70                          addl     %ebp, %edi                0x1                              
0xb3c9                           03DA             0x72        0x6a                          addl     %edx, %ebx                0x1                              
0xb3cb                           03DE             0x72        0x6e                          addl     %esi, %ebx                0x1                              
0xb3cd                           8B742408         0x72        0x70                          movl     0x8(%esp), %esi           0x1                              
0xb3d1                           0FB65610         0x72                                      movzbl   0x10(%esi), %edx          0x1                              
0xb3d5                           89742404         0x72        0x6a                          movl     %esi, 0x4(%esp)           0x2                              
0xb3d9                           8D6C1302         0x72        0x6e                          leal     0x2(%ebx, %edx, 1), %ebp  0x1                              
0xb3dd                           0FB6510F         0x72        0x70                          movzbl   0xf(%ecx), %edx           0x1                              
0xb3e1                           8B5C2444         0x71        0x6a                          movl     0x44(%esp), %ebx          0x1                              
0xb3e5                           C1ED02           0x71        0x6e                          shrl     $0x2, %ebp                0x1                              
0xb3e8                           2BEA             0x71        0x70                          subl     %edx, %ebp                0x1                              
0xb3ea                           8BC5             0x71        0x6a                          movl     %ebp, %eax                0x1                              
0xb3ec                           99               0x71        0x6e                          cltd                               0x1                              
0xb3ed                           33EA             0x71        0x70                          xorl     %edx, %ebp                0x1                              
0xb3ef                           2BEA             0x71        0x6a                          subl     %edx, %ebp                0x1                              
0xb3f1                           8B542438         0x71        0x6e                          movl     0x38(%esp), %edx          0x1                              
0xb3f5                           03EF             0x71        0x70                          addl     %edi, %ebp                0x1                              
0xb3f7                           03F2             0x71        0x6a                          addl     %edx, %esi                0x1                              
0xb3f9                           03CA             0x71        0x6e                          addl     %edx, %ecx                0x1                              
0xb3fb                           8B1424           0x71        0x70                          movl     (%esp), %edx              0x1                              
0xb3fe                           83C201           0x71                                      addl     $0x1, %edx                0x1                              
0xb401                           891424           0x72        0x6a                          movl     %edx, (%esp)              0x2                              
0xb404                           3BD3             0x72        0x6e                          cmpl     %ebx, %edx                0x1                              
0xb406                           0F8CC6FCFFFF     0x72        0x70                          jnge     dist1+516                 0x1                              0x3
0xb40c  dist1+850:               8BC5             0x72        0x6a                          movl     %ebp, %eax                0x1                              
0xb40e                           83C41C           0x72        0x70                          addl     $0x1c, %esp               0x1                              
0xb411                           5B               0x72                                      popl     %ebx                      0x2                              
0xb412                           5D               0x72                                      popl     %ebp                      0x2                              
0xb413                           5E               0x72                                      popl     %esi                      0x2                              
0xb414                           5F               0x72                                      popl     %edi                      0x2                              
0xb415                           C3               0x72                                      ret                                0x4                              
0xb416  dist2:                   57               0x72                                      pushl    %edi                      0x3                              
0xb417                           56               0x72                                      pushl    %esi                      0x3                              
0xb418                           53               0x72        0x6a                          pushl    %ebx                      0x3                              
0xb419                           83EC14           0x72        0x6e                          subl     $0x14, %esp               0x1                              
0xb41c                           8B742424         0x72        0x70                          movl     0x24(%esp), %esi          0x1                              
0xb420                           8B442428         0x71        0x6a                          movl     0x28(%esp), %eax          0x1                              
0xb424                           8B542430         0x71        0x6e                          movl     0x30(%esp), %edx          0x1                              
0xb428                           85D2             0x71        0x70                          testl    %edx, %edx                0x1                              
0xb42a                           8B4C2434         0x71        0x6a                          movl     0x34(%esp), %ecx          0x1                              
0xb42e                           0F85F0020000     0x71        0x70                          jnz      dist2+30e                 0x1                              0x3
0xb434  dist2+1e:                85C9             0x71        0x6a                          testl    %ecx, %ecx                0x1                              
0xb436                           0F8520010000     0x71        0x70                          jnz      dist2+146                 0x1                              0x3
0xb43c  dist2+26:                8B4C2438         0x71        0x6a                          movl     0x38(%esp), %ecx          0x1                              
0xb440                           33D2             0x72        0x6e                          xorl     %edx, %edx                0x1                              
0xb442                           33DB             0x72        0x70                          xorl     %ebx, %ebx                0x1                              
0xb444                           85C9             0x72        0x6a                          testl    %ecx, %ecx                0x1                              
0xb446                           0F8EDA060000     0x72        0x70                          jle      dist2+710                 0x1                              0x3
0xb44c  dist2+36:                8B4C242C         0x72                                      movl     0x2c(%esp), %ecx          0x1                              
0xb450                           892C24           0x72        0x6a                          movl     %ebp, (%esp)              0x2                              
0xb453  dist2+3d:                0FB63E           0x72        0x6e                          movzbl   (%esi), %edi              0x1                              
0xb456                           0FB628           0x72        0x70                          movzbl   (%eax), %ebp              0x1                              
0xb459                           2BFD             0x72        0x6a                          subl     %ebp, %edi                0x1                              
0xb45b                           0FAFFF           0x72        0x6e                          imull    %edi, %edi                0x1                              
0xb45e                           0FB66801         0x72        0x70                          movzbl   0x1(%eax), %ebp           0x1                              
0xb462                           83C301           0x71        0x6a                          addl     $0x1, %ebx                0x1                              
0xb465                           03D7             0x71        0x6e                          addl     %edi, %edx                0x1                              
0xb467                           0FB67E01         0x71        0x70                          movzbl   0x1(%esi), %edi           0x1                              
0xb46b                           2BFD             0x71        0x6a                          subl     %ebp, %edi                0x1                              
0xb46d                           0FAFFF           0x71        0x6e                          imull    %edi, %edi                0x1                              
0xb470                           0FB66802         0x71        0x70                          movzbl   0x2(%eax), %ebp           0x1                              
0xb474                           03D7             0x71        0x6a                          addl     %edi, %edx                0x1                              
0xb476                           0FB67E02         0x71        0x6e                          movzbl   0x2(%esi), %edi           0x1                              
0xb47a                           2BFD             0x71        0x70                          subl     %ebp, %edi                0x1                              
0xb47c                           0FAFFF           0x71        0x6a                          imull    %edi, %edi                0x1                              
0xb47f                           0FB66803         0x71        0x6e                          movzbl   0x3(%eax), %ebp           0x1                              
0xb483                           03D7             0x72        0x70                          addl     %edi, %edx                0x1                              
0xb485                           0FB67E03         0x72        0x6a                          movzbl   0x3(%esi), %edi           0x1                              
0xb489                           2BFD             0x72        0x6e                          subl     %ebp, %edi                0x1                              
0xb48b                           0FAFFF           0x72        0x70                          imull    %edi, %edi                0x1                              
0xb48e                           0FB66804         0x72        0x6a                          movzbl   0x4(%eax), %ebp           0x1                              
0xb492                           03D7             0x72        0x6e                          addl     %edi, %edx                0x1                              
0xb494                           0FB67E04         0x72        0x70                          movzbl   0x4(%esi), %edi           0x1                              
0xb498                           2BFD             0x72        0x6a                          subl     %ebp, %edi                0x1                              
0xb49a                           0FAFFF           0x72        0x6e                          imull    %edi, %edi                0x1                              
0xb49d                           0FB66805         0x72        0x70                          movzbl   0x5(%eax), %ebp           0x1                              
0xb4a1                           03D7             0x71        0x6a                          addl     %edi, %edx                0x1                              
0xb4a3                           0FB67E05         0x71        0x6e                          movzbl   0x5(%esi), %edi           0x1                              
0xb4a7                           2BFD             0x71        0x70                          subl     %ebp, %edi                0x1                              
0xb4a9                           0FAFFF           0x71        0x6a                          imull    %edi, %edi                0x1                              
0xb4ac                           0FB66806         0x71        0x6e                          movzbl   0x6(%eax), %ebp           0x1                              
0xb4b0                           03D7             0x71        0x70                          addl     %edi, %edx                0x1                              
0xb4b2                           0FB67E06         0x71        0x6a                          movzbl   0x6(%esi), %edi           0x1                              
0xb4b6                           2BFD             0x71        0x6e                          subl     %ebp, %edi                0x1                              
0xb4b8                           0FAFFF           0x71        0x70                          imull    %edi, %edi                0x1                              
0xb4bb                           0FB66807         0x71        0x6a                          movzbl   0x7(%eax), %ebp           0x1                              
0xb4bf                           03D7             0x71        0x6e                          addl     %edi, %edx                0x1                              
0xb4c1                           0FB67E07         0x72        0x70                          movzbl   0x7(%esi), %edi           0x1                              
0xb4c5                           2BFD             0x72        0x6a                          subl     %ebp, %edi                0x1                              
0xb4c7                           0FAFFF           0x72        0x6e                          imull    %edi, %edi                0x1                              
0xb4ca                           0FB66808         0x72        0x70                          movzbl   0x8(%eax), %ebp           0x1                              
0xb4ce                           03D7             0x72        0x6a                          addl     %edi, %edx                0x1                              
0xb4d0                           0FB67E08         0x72        0x6e                          movzbl   0x8(%esi), %edi           0x1                              
0xb4d4                           2BFD             0x72        0x70                          subl     %ebp, %edi                0x1                              
0xb4d6                           0FAFFF           0x72        0x6a                          imull    %edi, %edi                0x1                              
0xb4d9                           0FB66809         0x72        0x6e                          movzbl   0x9(%eax), %ebp           0x1                              
0xb4dd                           03D7             0x72        0x70                          addl     %edi, %edx                0x1                              
0xb4df                           0FB67E09         0x72        0x6a                          movzbl   0x9(%esi), %edi           0x1                              
0xb4e3                           2BFD             0x71        0x6e                          subl     %ebp, %edi                0x1                              
0xb4e5                           0FAFFF           0x71        0x70                          imull    %edi, %edi                0x1                              
0xb4e8                           0FB6680A         0x71        0x6a                          movzbl   0xa(%eax), %ebp           0x1                              
0xb4ec                           03D7             0x71        0x6e                          addl     %edi, %edx                0x1                              
0xb4ee                           0FB67E0A         0x71        0x70                          movzbl   0xa(%esi), %edi           0x1                              
0xb4f2                           2BFD             0x71        0x6a                          subl     %ebp, %edi                0x1                              
0xb4f4                           0FAFFF           0x71        0x6e                          imull    %edi, %edi                0x1                              
0xb4f7                           0FB6680B         0x71        0x70                          movzbl   0xb(%eax), %ebp           0x1                              
0xb4fb                           03D7             0x71        0x6a                          addl     %edi, %edx                0x1                              
0xb4fd                           0FB67E0B         0x71        0x6e                          movzbl   0xb(%esi), %edi           0x1                              
0xb501                           2BFD             0x72        0x70                          subl     %ebp, %edi                0x1                              
0xb503                           0FAFFF           0x72        0x6a                          imull    %edi, %edi                0x1                              
0xb506                           0FB6680C         0x72        0x6e                          movzbl   0xc(%eax), %ebp           0x1                              
0xb50a                           03D7             0x72        0x70                          addl     %edi, %edx                0x1                              
0xb50c                           0FB67E0C         0x72        0x6a                          movzbl   0xc(%esi), %edi           0x1                              
0xb510                           2BFD             0x72        0x6e                          subl     %ebp, %edi                0x1                              
0xb512                           0FAFFF           0x72        0x70                          imull    %edi, %edi                0x1                              
0xb515                           0FB6680D         0x72        0x6a                          movzbl   0xd(%eax), %ebp           0x1                              
0xb519                           03D7             0x72        0x6e                          addl     %edi, %edx                0x1                              
0xb51b                           0FB67E0D         0x72        0x70                          movzbl   0xd(%esi), %edi           0x1                              
0xb51f                           2BFD             0x72        0x6a                          subl     %ebp, %edi                0x1                              
0xb521                           0FAFFF           0x71        0x6e                          imull    %edi, %edi                0x1                              
0xb524                           0FB6680E         0x71        0x70                          movzbl   0xe(%eax), %ebp           0x1                              
0xb528                           03D7             0x71        0x6a                          addl     %edi, %edx                0x1                              
0xb52a                           0FB67E0E         0x71        0x6e                          movzbl   0xe(%esi), %edi           0x1                              
0xb52e                           2BFD             0x71        0x70                          subl     %ebp, %edi                0x1                              
0xb530                           0FAFFF           0x71        0x6a                          imull    %edi, %edi                0x1                              
0xb533                           0FB6680F         0x71        0x6e                          movzbl   0xf(%eax), %ebp           0x1                              
0xb537                           03C1             0x71        0x70                          addl     %ecx, %eax                0x1                              
0xb539                           03D7             0x71        0x6a                          addl     %edi, %edx                0x1                              
0xb53b                           0FB67E0F         0x71        0x6e                          movzbl   0xf(%esi), %edi           0x1                              
0xb53f                           2BFD             0x71        0x70                          subl     %ebp, %edi                0x1                              
0xb541                           0FAFFF           0x72        0x6a                          imull    %edi, %edi                0x1                              
0xb544                           03F1             0x72        0x6e                          addl     %ecx, %esi                0x1                              
0xb546                           03D7             0x72        0x70                          addl     %edi, %edx                0x1                              
0xb548                           8B6C2438         0x72        0x6a                          movl     0x38(%esp), %ebp          0x1                              
0xb54c                           3BDD             0x72        0x6e                          cmpl     %ebp, %ebx                0x1                              
0xb54e                           0F8CFFFEFFFF     0x72        0x70                          jnge     dist2+3d                  0x1                              0x3
0xb554  dist2+13e:               8B2C24           0x72        0x6a                          movl     (%esp), %ebp              0x1                              
0xb557                           E9CA050000       0x72        0x6e                          jmp      dist2+710                 0x1                              0x3
0xb55c  dist2+146:               8B4C242C         0x72        0x70                          movl     0x2c(%esp), %ecx          0x1                              
0xb560                           8B7C2438         0x71        0x6a                          movl     0x38(%esp), %edi          0x1                              
0xb564                           33D2             0x71        0x6e                          xorl     %edx, %edx                0x1                              
0xb566                           8D1C31           0x71        0x70                          leal     (%ecx, %esi, 1), %ebx     0x1                              
0xb569                           33C9             0x71        0x6a                          xorl     %ecx, %ecx                0x1                              
0xb56b                           85FF             0x71        0x6e                          testl    %edi, %edi                0x1                              
0xb56d                           0F8EB3050000     0x71        0x70                          jle      dist2+710                 0x1                              0x3
0xb573  dist2+15d:               892C24           0x71        0x6a                          movl     %ebp, (%esp)              0x2                              
0xb576  dist2+160:               0FB62E           0x71        0x6e                          movzbl   (%esi), %ebp              0x1                              
0xb579                           0FB63B           0x71        0x70                          movzbl   (%ebx), %edi              0x1                              
0xb57c                           8D7C3D01         0x71        0x6a                          leal     0x1(%ebp, %edi, 1), %edi  0x1                              
0xb580                           0FB628           0x72        0x6e                          movzbl   (%eax), %ebp              0x1                              
0xb583                           D1EF             0x72        0x70                          shrl     0x1, %edi                 0x1                              
0xb585                           2BFD             0x72        0x6a                          subl     %ebp, %edi                0x1                              
0xb587                           0FAFFF           0x72        0x6e                          imull    %edi, %edi                0x1                              
0xb58a                           0FB66E01         0x72        0x70                          movzbl   0x1(%esi), %ebp           0x1                              
0xb58e                           83C101           0x72        0x6a                          addl     $0x1, %ecx                0x1                              
0xb591                           03D7             0x72        0x6e                          addl     %edi, %edx                0x1                              
0xb593                           0FB67B01         0x72        0x70                          movzbl   0x1(%ebx), %edi           0x1                              
0xb597                           8D7C3D01         0x72        0x6a                          leal     0x1(%ebp, %edi, 1), %edi  0x1                              
0xb59b                           0FB66801         0x72        0x6e                          movzbl   0x1(%eax), %ebp           0x1                              
0xb59f                           D1EF             0x72        0x70                          shrl     0x1, %edi                 0x1                              
0xb5a1                           2BFD             0x71        0x6a                          subl     %ebp, %edi                0x1                              
0xb5a3                           0FAFFF           0x71        0x6e                          imull    %edi, %edi                0x1                              
0xb5a6                           0FB66E02         0x71        0x70                          movzbl   0x2(%esi), %ebp           0x1                              
0xb5aa                           03D7             0x71        0x6a                          addl     %edi, %edx                0x1                              
0xb5ac                           0FB67B02         0x71        0x6e                          movzbl   0x2(%ebx), %edi           0x1                              
0xb5b0                           8D7C3D01         0x71        0x70                          leal     0x1(%ebp, %edi, 1), %edi  0x1                              
0xb5b4                           0FB66802         0x71        0x6a                          movzbl   0x2(%eax), %ebp           0x1                              
0xb5b8                           D1EF             0x71        0x6e                          shrl     0x1, %edi                 0x1                              
0xb5ba                           2BFD             0x71        0x70                          subl     %ebp, %edi                0x1                              
0xb5bc                           0FAFFF           0x71        0x6a                          imull    %edi, %edi                0x1                              
0xb5bf                           0FB66E03         0x71        0x6e                          movzbl   0x3(%esi), %ebp           0x1                              
0xb5c3                           03D7             0x72        0x70                          addl     %edi, %edx                0x1                              
0xb5c5                           0FB67B03         0x72        0x6a                          movzbl   0x3(%ebx), %edi           0x1                              
0xb5c9                           8D7C3D01         0x72        0x6e                          leal     0x1(%ebp, %edi, 1), %edi  0x1                              
0xb5cd                           0FB66803         0x72        0x70                          movzbl   0x3(%eax), %ebp           0x1                              
0xb5d1                           D1EF             0x72        0x6a                          shrl     0x1, %edi                 0x1                              
0xb5d3                           2BFD             0x72        0x6e                          subl     %ebp, %edi                0x1                              
0xb5d5                           0FAFFF           0x72        0x70                          imull    %edi, %edi                0x1                              
0xb5d8                           0FB66E04         0x72        0x6a                          movzbl   0x4(%esi), %ebp           0x1                              
0xb5dc                           03D7             0x72        0x6e                          addl     %edi, %edx                0x1                              
0xb5de                           0FB67B04         0x72        0x70                          movzbl   0x4(%ebx), %edi           0x1                              
0xb5e2                           8D7C3D01         0x71        0x6a                          leal     0x1(%ebp, %edi, 1), %edi  0x1                              
0xb5e6                           0FB66804         0x71        0x6e                          movzbl   0x4(%eax), %ebp           0x1                              
0xb5ea                           D1EF             0x71        0x70                          shrl     0x1, %edi                 0x1                              
0xb5ec                           2BFD             0x71        0x6a                          subl     %ebp, %edi                0x1                              
0xb5ee                           0FAFFF           0x71        0x6e                          imull    %edi, %edi                0x1                              
0xb5f1                           0FB66E05         0x71        0x70                          movzbl   0x5(%esi), %ebp           0x1                              
0xb5f5                           03D7             0x71        0x6a                          addl     %edi, %edx                0x1                              
0xb5f7                           0FB67B05         0x71        0x6e                          movzbl   0x5(%ebx), %edi           0x1                              
0xb5fb                           8D7C3D01         0x71        0x70                          leal     0x1(%ebp, %edi, 1), %edi  0x1                              
0xb5ff                           0FB66805         0x71        0x6a                          movzbl   0x5(%eax), %ebp           0x1                              
0xb603                           D1EF             0x72        0x6e                          shrl     0x1, %edi                 0x1                              
0xb605                           2BFD             0x72        0x70                          subl     %ebp, %edi                0x1                              
0xb607                           0FAFFF           0x72        0x6a                          imull    %edi, %edi                0x1                              
0xb60a                           0FB66E06         0x72        0x6e                          movzbl   0x6(%esi), %ebp           0x1                              
0xb60e                           03D7             0x72        0x70                          addl     %edi, %edx                0x1                              
0xb610                           0FB67B06         0x72        0x6a                          movzbl   0x6(%ebx), %edi           0x1                              
0xb614                           8D7C3D01         0x72        0x6e                          leal     0x1(%ebp, %edi, 1), %edi  0x1                              
0xb618                           0FB66806         0x72        0x70                          movzbl   0x6(%eax), %ebp           0x1                              
0xb61c                           D1EF             0x72        0x6a                          shrl     0x1, %edi                 0x1                              
0xb61e                           2BFD             0x72        0x6e                          subl     %ebp, %edi                0x1                              
0xb620                           0FAFFF           0x71        0x70                          imull    %edi, %edi                0x1                              
0xb623                           0FB66E07         0x71        0x6a                          movzbl   0x7(%esi), %ebp           0x1                              
0xb627                           03D7             0x71        0x6e                          addl     %edi, %edx                0x1                              
0xb629                           0FB67B07         0x71        0x70                          movzbl   0x7(%ebx), %edi           0x1                              
0xb62d                           8D7C3D01         0x71        0x6a                          leal     0x1(%ebp, %edi, 1), %edi  0x1                              
0xb631                           0FB66807         0x71        0x6e                          movzbl   0x7(%eax), %ebp           0x1                              
0xb635                           D1EF             0x71        0x70                          shrl     0x1, %edi                 0x1                              
0xb637                           2BFD             0x71        0x6a                          subl     %ebp, %edi                0x1                              
0xb639                           0FAFFF           0x71        0x6e                          imull    %edi, %edi                0x1                              
0xb63c                           0FB66E08         0x71        0x70                          movzbl   0x8(%esi), %ebp           0x1                              
0xb640                           03D7             0x72        0x6a                          addl     %edi, %edx                0x1                              
0xb642                           0FB67B08         0x72        0x6e                          movzbl   0x8(%ebx), %edi           0x1                              
0xb646                           8D7C3D01         0x72        0x70                          leal     0x1(%ebp, %edi, 1), %edi  0x1                              
0xb64a                           0FB66808         0x72        0x6a                          movzbl   0x8(%eax), %ebp           0x1                              
0xb64e                           D1EF             0x72        0x6e                          shrl     0x1, %edi                 0x1                              
0xb650                           2BFD             0x72        0x70                          subl     %ebp, %edi                0x1                              
0xb652                           0FAFFF           0x72        0x6a                          imull    %edi, %edi                0x1                              
0xb655                           0FB66E09         0x72        0x6e                          movzbl   0x9(%esi), %ebp           0x1                              
0xb659                           03D7             0x72        0x70                          addl     %edi, %edx                0x1                              
0xb65b                           0FB67B09         0x72        0x6a                          movzbl   0x9(%ebx), %edi           0x1                              
0xb65f                           8D7C3D01         0x72        0x6e                          leal     0x1(%ebp, %edi, 1), %edi  0x1                              
0xb663                           0FB66809         0x71        0x70                          movzbl   0x9(%eax), %ebp           0x1                              
0xb667                           D1EF             0x71        0x6a                          shrl     0x1, %edi                 0x1                              
0xb669                           2BFD             0x71        0x6e                          subl     %ebp, %edi                0x1                              
0xb66b                           0FAFFF           0x71        0x70                          imull    %edi, %edi                0x1                              
0xb66e                           0FB66E0A         0x71        0x6a                          movzbl   0xa(%esi), %ebp           0x1                              
0xb672                           03D7             0x71        0x6e                          addl     %edi, %edx                0x1                              
0xb674                           0FB67B0A         0x71        0x70                          movzbl   0xa(%ebx), %edi           0x1                              
0xb678                           8D7C3D01         0x71        0x6a                          leal     0x1(%ebp, %edi, 1), %edi  0x1                              
0xb67c                           0FB6680A         0x71        0x6e                          movzbl   0xa(%eax), %ebp           0x1                              
0xb680                           D1EF             0x72        0x70                          shrl     0x1, %edi                 0x1                              
0xb682                           2BFD             0x72        0x6a                          subl     %ebp, %edi                0x1                              
0xb684                           0FAFFF           0x72        0x6e                          imull    %edi, %edi                0x1                              
0xb687                           0FB66E0B         0x72        0x70                          movzbl   0xb(%esi), %ebp           0x1                              
0xb68b                           03D7             0x72        0x6a                          addl     %edi, %edx                0x1                              
0xb68d                           0FB67B0B         0x72        0x6e                          movzbl   0xb(%ebx), %edi           0x1                              
0xb691                           8D7C3D01         0x72        0x70                          leal     0x1(%ebp, %edi, 1), %edi  0x1                              
0xb695                           0FB6680B         0x72        0x6a                          movzbl   0xb(%eax), %ebp           0x1                              
0xb699                           D1EF             0x72        0x6e                          shrl     0x1, %edi                 0x1                              
0xb69b                           2BFD             0x72        0x70                          subl     %ebp, %edi                0x1                              
0xb69d                           0FAFFF           0x72        0x6a                          imull    %edi, %edi                0x1                              
0xb6a0                           0FB66E0C         0x71        0x6e                          movzbl   0xc(%esi), %ebp           0x1                              
0xb6a4                           03D7             0x71        0x70                          addl     %edi, %edx                0x1                              
0xb6a6                           0FB67B0C         0x71        0x6a                          movzbl   0xc(%ebx), %edi           0x1                              
0xb6aa                           8D7C3D01         0x71        0x6e                          leal     0x1(%ebp, %edi, 1), %edi  0x1                              
0xb6ae                           0FB6680C         0x71        0x70                          movzbl   0xc(%eax), %ebp           0x1                              
0xb6b2                           D1EF             0x71        0x6a                          shrl     0x1, %edi                 0x1                              
0xb6b4                           2BFD             0x71        0x6e                          subl     %ebp, %edi                0x1                              
0xb6b6                           0FAFFF           0x71        0x70                          imull    %edi, %edi                0x1                              
0xb6b9                           0FB66E0D         0x71        0x6a                          movzbl   0xd(%esi), %ebp           0x1                              
0xb6bd                           03D7             0x71        0x6e                          addl     %edi, %edx                0x1                              
0xb6bf                           0FB67B0D         0x71        0x70                          movzbl   0xd(%ebx), %edi           0x1                              
0xb6c3                           8D7C3D01         0x72        0x6a                          leal     0x1(%ebp, %edi, 1), %edi  0x1                              
0xb6c7                           0FB6680D         0x72        0x6e                          movzbl   0xd(%eax), %ebp           0x1                              
0xb6cb                           D1EF             0x72        0x70                          shrl     0x1, %edi                 0x1                              
0xb6cd                           2BFD             0x72        0x6a                          subl     %ebp, %edi                0x1                              
0xb6cf                           0FAFFF           0x72        0x6e                          imull    %edi, %edi                0x1                              
0xb6d2                           0FB66E0E         0x72        0x70                          movzbl   0xe(%esi), %ebp           0x1                              
0xb6d6                           0FB6760F         0x72        0x6a                          movzbl   0xf(%esi), %esi           0x1                              
0xb6da                           03D7             0x72        0x6e                          addl     %edi, %edx                0x1                              
0xb6dc                           0FB67B0E         0x72        0x70                          movzbl   0xe(%ebx), %edi           0x1                              
0xb6e0                           8D7C3D01         0x71        0x6a                          leal     0x1(%ebp, %edi, 1), %edi  0x1                              
0xb6e4                           0FB6680E         0x71        0x6e                          movzbl   0xe(%eax), %ebp           0x1                              
0xb6e8                           D1EF             0x71        0x70                          shrl     0x1, %edi                 0x1                              
0xb6ea                           2BFD             0x71        0x6a                          subl     %ebp, %edi                0x1                              
0xb6ec                           0FAFFF           0x71        0x6e                          imull    %edi, %edi                0x1                              
0xb6ef                           0FB66B0F         0x71        0x70                          movzbl   0xf(%ebx), %ebp           0x1                              
0xb6f3                           8D742E01         0x71        0x6a                          leal     0x1(%esi, %ebp, 1), %esi  0x1                              
0xb6f7                           0FB6680F         0x71        0x6e                          movzbl   0xf(%eax), %ebp           0x1                              
0xb6fb                           03D7             0x71        0x70                          addl     %edi, %edx                0x1                              
0xb6fd                           D1EE             0x71        0x6a                          shrl     0x1, %esi                 0x1                              
0xb6ff                           2BF5             0x71        0x6e                          subl     %ebp, %esi                0x1                              
0xb701                           0FAFF6           0x72        0x70                          imull    %esi, %esi                0x1                              
0xb704                           03D6             0x72        0x6a                          addl     %esi, %edx                0x1                              
0xb706                           8BF3             0x72        0x6e                          movl     %ebx, %esi                0x1                              
0xb708                           8B6C242C         0x72        0x70                          movl     0x2c(%esp), %ebp          0x1                              
0xb70c                           03DD             0x72        0x6a                          addl     %ebp, %ebx                0x1                              
0xb70e                           03C5             0x72        0x6e                          addl     %ebp, %eax                0x1                              
0xb710                           8B6C2438         0x72        0x70                          movl     0x38(%esp), %ebp          0x1                              
0xb714                           3BCD             0x72        0x6a                          cmpl     %ebp, %ecx                0x1                              
0xb716                           0F8C5AFEFFFF     0x72        0x70                          jnge     dist2+160                 0x1                              0x3
0xb71c  dist2+306:               8B2C24           0x72        0x6a                          movl     (%esp), %ebp              0x1                              
0xb71f                           E902040000       0x72        0x6e                          jmp      dist2+710                 0x1                              0x3
0xb724  dist2+30e:               85C9             0x71        0x70                          testl    %ecx, %ecx                0x1                              
0xb726                           0F8584010000     0x71                                      jnz      dist2+49a                 0x1                              0x3
0xb72c  dist2+316:               8B5C2438         0x71        0x6a                          movl     0x38(%esp), %ebx          0x1                              
0xb730                           33D2             0x71        0x6e                          xorl     %edx, %edx                0x1                              
0xb732                           33C9             0x71        0x70                          xorl     %ecx, %ecx                0x1                              
0xb734                           85DB             0x71        0x6a                          testl    %ebx, %ebx                0x1                              
0xb736                           0F8EEA030000     0x71        0x70                          jle      dist2+710                 0x1                              0x3
0xb73c  dist2+326:               892C24           0x71        0x6a                          movl     %ebp, (%esp)              0x2                              
0xb73f  dist2+329:               0FB66E01         0x71        0x6e                          movzbl   0x1(%esi), %ebp           0x1                              
0xb743                           0FB61E           0x72        0x70                          movzbl   (%esi), %ebx              0x1                              
0xb746                           8D7C2B01         0x72        0x6a                          leal     0x1(%ebx, %ebp, 1), %edi  0x1                              
0xb74a                           0FB618           0x72        0x6e                          movzbl   (%eax), %ebx              0x1                              
0xb74d                           D1EF             0x72        0x70                          shrl     0x1, %edi                 0x1                              
0xb74f                           2BFB             0x72        0x6a                          subl     %ebx, %edi                0x1                              
0xb751                           0FAFFF           0x72        0x6e                          imull    %edi, %edi                0x1                              
0xb754                           0FB65E02         0x72        0x70                          movzbl   0x2(%esi), %ebx           0x1                              
0xb758                           83C101           0x72        0x6a                          addl     $0x1, %ecx                0x1                              
0xb75b                           03D7             0x72        0x6e                          addl     %edi, %edx                0x1                              
0xb75d                           8D7C1D01         0x72        0x70                          leal     0x1(%ebp, %ebx, 1), %edi  0x1                              
0xb761                           0FB66801         0x71        0x6a                          movzbl   0x1(%eax), %ebp           0x1                              
0xb765                           D1EF             0x71        0x6e                          shrl     0x1, %edi                 0x1                              
0xb767                           2BFD             0x71        0x70                          subl     %ebp, %edi                0x1                              
0xb769                           0FAFFF           0x71        0x6a                          imull    %edi, %edi                0x1                              
0xb76c                           0FB66E03         0x71        0x6e                          movzbl   0x3(%esi), %ebp           0x1                              
0xb770                           03D7             0x71        0x70                          addl     %edi, %edx                0x1                              
0xb772                           8D7C2B01         0x71        0x6a                          leal     0x1(%ebx, %ebp, 1), %edi  0x1                              
0xb776                           0FB65802         0x71        0x6e                          movzbl   0x2(%eax), %ebx           0x1                              
0xb77a                           D1EF             0x71        0x70                          shrl     0x1, %edi                 0x1                              
0xb77c                           2BFB             0x71        0x6a                          subl     %ebx, %edi                0x1                              
0xb77e                           0FAFFF           0x71        0x6e                          imull    %edi, %edi                0x1                              
0xb781                           0FB65E04         0x72        0x70                          movzbl   0x4(%esi), %ebx           0x1                              
0xb785                           03D7             0x72        0x6a                          addl     %edi, %edx                0x1                              
0xb787                           8D7C1D01         0x72        0x6e                          leal     0x1(%ebp, %ebx, 1), %edi  0x1                              
0xb78b                           0FB66803         0x72        0x70                          movzbl   0x3(%eax), %ebp           0x1                              
0xb78f                           D1EF             0x72        0x6a                          shrl     0x1, %edi                 0x1                              
0xb791                           2BFD             0x72        0x6e                          subl     %ebp, %edi                0x1                              
0xb793                           0FAFFF           0x72        0x70                          imull    %edi, %edi                0x1                              
0xb796                           0FB66E05         0x72        0x6a                          movzbl   0x5(%esi), %ebp           0x1                              
0xb79a                           03D7             0x72        0x6e                          addl     %edi, %edx                0x1                              
0xb79c                           8D7C2B01         0x72        0x70                          leal     0x1(%ebx, %ebp, 1), %edi  0x1                              
0xb7a0                           0FB65804         0x71        0x6a                          movzbl   0x4(%eax), %ebx           0x1                              
0xb7a4                           D1EF             0x71        0x6e                          shrl     0x1, %edi                 0x1                              
0xb7a6                           2BFB             0x71        0x70                          subl     %ebx, %edi                0x1                              
0xb7a8                           0FAFFF           0x71        0x6a                          imull    %edi, %edi                0x1                              
0xb7ab                           0FB65E06         0x71        0x6e                          movzbl   0x6(%esi), %ebx           0x1                              
0xb7af                           03D7             0x71        0x70                          addl     %edi, %edx                0x1                              
0xb7b1                           8D7C1D01         0x71        0x6a                          leal     0x1(%ebp, %ebx, 1), %edi  0x1                              
0xb7b5                           0FB66805         0x71        0x6e                          movzbl   0x5(%eax), %ebp           0x1                              
0xb7b9                           D1EF             0x71        0x70                          shrl     0x1, %edi                 0x1                              
0xb7bb                           2BFD             0x71        0x6a                          subl     %ebp, %edi                0x1                              
0xb7bd                           0FAFFF           0x71        0x6e                          imull    %edi, %edi                0x1                              
0xb7c0                           0FB66E07         0x72        0x70                          movzbl   0x7(%esi), %ebp           0x1                              
0xb7c4                           03D7             0x72        0x6a                          addl     %edi, %edx                0x1                              
0xb7c6                           8D7C2B01         0x72        0x6e                          leal     0x1(%ebx, %ebp, 1), %edi  0x1                              
0xb7ca                           0FB65806         0x72        0x70                          movzbl   0x6(%eax), %ebx           0x1                              
0xb7ce                           D1EF             0x72        0x6a                          shrl     0x1, %edi                 0x1                              
0xb7d0                           2BFB             0x72        0x6e                          subl     %ebx, %edi                0x1                              
0xb7d2                           0FAFFF           0x72        0x70                          imull    %edi, %edi                0x1                              
0xb7d5                           0FB65E08         0x72        0x6a                          movzbl   0x8(%esi), %ebx           0x1                              
0xb7d9                           03D7             0x72        0x6e                          addl     %edi, %edx                0x1                              
0xb7db                           8D7C1D01         0x72        0x70                          leal     0x1(%ebp, %ebx, 1), %edi  0x1                              
0xb7df                           0FB66807         0x72        0x6a                          movzbl   0x7(%eax), %ebp           0x1                              
0xb7e3                           D1EF             0x71        0x6e                          shrl     0x1, %edi                 0x1                              
0xb7e5                           2BFD             0x71        0x70                          subl     %ebp, %edi                0x1                              
0xb7e7                           0FAFFF           0x71        0x6a                          imull    %edi, %edi                0x1                              
0xb7ea                           0FB66E09         0x71        0x6e                          movzbl   0x9(%esi), %ebp           0x1                              
0xb7ee                           03D7             0x71        0x70                          addl     %edi, %edx                0x1                              
0xb7f0                           8D7C2B01         0x71        0x6a                          leal     0x1(%ebx, %ebp, 1), %edi  0x1                              
0xb7f4                           0FB65808         0x71        0x6e                          movzbl   0x8(%eax), %ebx           0x1                              
0xb7f8                           D1EF             0x71        0x70                          shrl     0x1, %edi                 0x1                              
0xb7fa                           2BFB             0x71        0x6a                          subl     %ebx, %edi                0x1                              
0xb7fc                           0FAFFF           0x71        0x6e                          imull    %edi, %edi                0x1                              
0xb7ff                           0FB65E0A         0x71        0x70                          movzbl   0xa(%esi), %ebx           0x1                              
0xb803                           03D7             0x72        0x6a                          addl     %edi, %edx                0x1                              
0xb805                           8D7C1D01         0x72        0x6e                          leal     0x1(%ebp, %ebx, 1), %edi  0x1                              
0xb809                           0FB66809         0x72        0x70                          movzbl   0x9(%eax), %ebp           0x1                              
0xb80d                           D1EF             0x72        0x6a                          shrl     0x1, %edi                 0x1                              
0xb80f                           2BFD             0x72        0x6e                          subl     %ebp, %edi                0x1                              
0xb811                           0FAFFF           0x72        0x70                          imull    %edi, %edi                0x1                              
0xb814                           0FB66E0B         0x72        0x6a                          movzbl   0xb(%esi), %ebp           0x1                              
0xb818                           03D7             0x72        0x6e                          addl     %edi, %edx                0x1                              
0xb81a                           8D7C2B01         0x72        0x70                          leal     0x1(%ebx, %ebp, 1), %edi  0x1                              
0xb81e                           0FB6580A         0x72        0x6a                          movzbl   0xa(%eax), %ebx           0x1                              
0xb822                           D1EF             0x71        0x6e                          shrl     0x1, %edi                 0x1                              
0xb824                           2BFB             0x71        0x70                          subl     %ebx, %edi                0x1                              
0xb826                           0FAFFF           0x71        0x6a                          imull    %edi, %edi                0x1                              
0xb829                           0FB65E0C         0x71        0x6e                          movzbl   0xc(%esi), %ebx           0x1                              
0xb82d                           03D7             0x71        0x70                          addl     %edi, %edx                0x1                              
0xb82f                           8D7C1D01         0x71        0x6a                          leal     0x1(%ebp, %ebx, 1), %edi  0x1                              
0xb833                           0FB6680B         0x71        0x6e                          movzbl   0xb(%eax), %ebp           0x1                              
0xb837                           D1EF             0x71        0x70                          shrl     0x1, %edi                 0x1                              
0xb839                           2BFD             0x71        0x6a                          subl     %ebp, %edi                0x1                              
0xb83b                           0FAFFF           0x71        0x6e                          imull    %edi, %edi                0x1                              
0xb83e                           03D7             0x71        0x70                          addl     %edi, %edx                0x1                              
0xb840                           0FB67E0D         0x72        0x6a                          movzbl   0xd(%esi), %edi           0x1                              
0xb844                           8D6C3B01         0x72        0x6e                          leal     0x1(%ebx, %edi, 1), %ebp  0x1                              
0xb848                           0FB6580C         0x72        0x70                          movzbl   0xc(%eax), %ebx           0x1                              
0xb84c                           D1ED             0x72        0x6a                          shrl     0x1, %ebp                 0x1                              
0xb84e                           2BEB             0x72        0x6e                          subl     %ebx, %ebp                0x1                              
0xb850                           0FAFED           0x72        0x70                          imull    %ebp, %ebp                0x1                              
0xb853                           0FB6580D         0x72        0x6a                          movzbl   0xd(%eax), %ebx           0x1                              
0xb857                           03D5             0x72        0x6e                          addl     %ebp, %edx                0x1                              
0xb859                           0FB66E0E         0x72        0x70                          movzbl   0xe(%esi), %ebp           0x1                              
0xb85d                           8D7C2F01         0x72        0x6a                          leal     0x1(%edi, %ebp, 1), %edi  0x1                              
0xb861                           D1EF             0x71        0x6e                          shrl     0x1, %edi                 0x1                              
0xb863                           2BFB             0x71        0x70                          subl     %ebx, %edi                0x1                              
0xb865                           0FAFFF           0x71        0x6a                          imull    %edi, %edi                0x1                              
0xb868                           0FB65E0F         0x71        0x6e                          movzbl   0xf(%esi), %ebx           0x1                              
0xb86c                           03D7             0x71        0x70                          addl     %edi, %edx                0x1                              
0xb86e                           8D7C1D01         0x71        0x6a                          leal     0x1(%ebp, %ebx, 1), %edi  0x1                              
0xb872                           0FB6680E         0x71        0x6e                          movzbl   0xe(%eax), %ebp           0x1                              
0xb876                           D1EF             0x71        0x70                          shrl     0x1, %edi                 0x1                              
0xb878                           2BFD             0x71        0x6a                          subl     %ebp, %edi                0x1                              
0xb87a                           0FAFFF           0x71        0x6e                          imull    %edi, %edi                0x1                              
0xb87d                           0FB66E10         0x71        0x70                          movzbl   0x10(%esi), %ebp          0x1                              
0xb881                           8D6C2B01         0x72        0x6a                          leal     0x1(%ebx, %ebp, 1), %ebp  0x1                              
0xb885                           0FB6580F         0x72        0x6e                          movzbl   0xf(%eax), %ebx           0x1                              
0xb889                           03D7             0x72        0x70                          addl     %edi, %edx                0x1                              
0xb88b                           D1ED             0x72        0x6a                          shrl     0x1, %ebp                 0x1                              
0xb88d                           2BEB             0x72        0x6e                          subl     %ebx, %ebp                0x1                              
0xb88f                           0FAFED           0x72        0x70                          imull    %ebp, %ebp                0x1                              
0xb892                           03D5             0x72        0x6a                          addl     %ebp, %edx                0x1                              
0xb894                           8B5C242C         0x72        0x6e                          movl     0x2c(%esp), %ebx          0x1                              
0xb898                           03F3             0x72        0x70                          addl     %ebx, %esi                0x1                              
0xb89a                           03C3             0x72        0x6a                          addl     %ebx, %eax                0x1                              
0xb89c                           8B5C2438         0x72        0x6e                          movl     0x38(%esp), %ebx          0x1                              
0xb8a0                           3BCB             0x71        0x70                          cmpl     %ebx, %ecx                0x1                              
0xb8a2                           0F8C97FEFFFF     0x71                                      jnge     dist2+329                 0x1                              0x3
0xb8a8  dist2+492:               8B2C24           0x71        0x6a                          movl     (%esp), %ebp              0x1                              
0xb8ab                           E976020000       0x71        0x6e                          jmp      dist2+710                 0x1                              0x3
0xb8b0  dist2+49a:               8B5C242C         0x71        0x70                          movl     0x2c(%esp), %ebx          0x1                              
0xb8b4                           8B7C2438         0x71        0x6a                          movl     0x38(%esp), %edi          0x1                              
0xb8b8                           33D2             0x71        0x6e                          xorl     %edx, %edx                0x1                              
0xb8ba                           8D1C33           0x71        0x70                          leal     (%ebx, %esi, 1), %ebx     0x1                              
0xb8bd                           33C9             0x71        0x6a                          xorl     %ecx, %ecx                0x1                              
0xb8bf                           85FF             0x71        0x6e                          testl    %edi, %edi                0x1                              
0xb8c1                           0F8E5F020000     0x72        0x70                          jle      dist2+710                 0x1                              0x3
0xb8c7  dist2+4b1:               894C2404         0x72                                      movl     %ecx, 0x4(%esp)           0x2                              
0xb8cb                           89742408         0x72                                      movl     %esi, 0x8(%esp)           0x2                              
0xb8cf                           892C24           0x72        0x6a                          movl     %ebp, (%esp)              0x2                              
0xb8d2  dist2+4bc:               8B6C2408         0x72        0x6e                          movl     0x8(%esp), %ebp           0x1                              
0xb8d6                           0FB67D01         0x72        0x70                          movzbl   0x1(%ebp), %edi           0x1                              
0xb8da                           0FB67301         0x72        0x6a                          movzbl   0x1(%ebx), %esi           0x1                              
0xb8de                           0FB64D00         0x72        0x70                          movzbl   (%ebp), %ecx              0x1                              
0xb8e2                           895C240C         0x71        0x6a                          movl     %ebx, 0xc(%esp)           0x2                              
0xb8e6                           03CF             0x71        0x70                          addl     %edi, %ecx                0x1                              
0xb8e8                           897C2410         0x71        0x6a                          movl     %edi, 0x10(%esp)          0x2                              
0xb8ec                           0FB63B           0x71        0x6e                          movzbl   (%ebx), %edi              0x1                              
0xb8ef                           0FB65B02         0x71        0x70                          movzbl   0x2(%ebx), %ebx           0x1                              
0xb8f3                           03CF             0x71        0x6a                          addl     %edi, %ecx                0x1                              
0xb8f5                           8D7C3102         0x71        0x6e                          leal     0x2(%ecx, %esi, 1), %edi  0x1                              
0xb8f9                           0FB608           0x71        0x70                          movzbl   (%eax), %ecx              0x1                              
0xb8fc                           C1EF02           0x71        0x6a                          shrl     $0x2, %edi                0x1                              
0xb8ff                           2BF9             0x71        0x6e                          subl     %ecx, %edi                0x1                              
0xb901                           0FAFFF           0x72        0x70                          imull    %edi, %edi                0x1                              
0xb904                           0FB64D02         0x72        0x6a                          movzbl   0x2(%ebp), %ecx           0x1                              
0xb908                           03D7             0x72        0x6e                          addl     %edi, %edx                0x1                              
0xb90a                           8B7C2410         0x72        0x70                          movl     0x10(%esp), %edi          0x1                              
0xb90e                           03F9             0x72        0x6a                          addl     %ecx, %edi                0x1                              
0xb910                           03FE             0x72        0x6e                          addl     %esi, %edi                0x1                              
0xb912                           0FB67001         0x72        0x70                          movzbl   0x1(%eax), %esi           0x1                              
0xb916                           8D7C1F02         0x72        0x6a                          leal     0x2(%edi, %ebx, 1), %edi  0x1                              
0xb91a                           C1EF02           0x72        0x6e                          shrl     $0x2, %edi                0x1                              
0xb91d                           2BFE             0x72        0x70                          subl     %esi, %edi                0x1                              
0xb91f                           0FAFFF           0x72        0x6a                          imull    %edi, %edi                0x1                              
0xb922                           0FB67503         0x71        0x6e                          movzbl   0x3(%ebp), %esi           0x1                              
0xb926                           03CE             0x71        0x70                          addl     %esi, %ecx                0x1                              
0xb928                           03D7             0x71        0x6a                          addl     %edi, %edx                0x1                              
0xb92a                           8B7C240C         0x71        0x6e                          movl     0xc(%esp), %edi           0x1                              
0xb92e                           0FB67F03         0x71        0x70                          movzbl   0x3(%edi), %edi           0x1                              
0xb932                           03CB             0x71        0x6a                          addl     %ebx, %ecx                0x1                              
0xb934                           8D5C3902         0x71        0x6e                          leal     0x2(%ecx, %edi, 1), %ebx  0x1                              
0xb938                           0FB64802         0x71        0x70                          movzbl   0x2(%eax), %ecx           0x1                              
0xb93c                           C1EB02           0x71        0x6a                          shrl     $0x2, %ebx                0x1                              
0xb93f                           2BD9             0x71        0x6e                          subl     %ecx, %ebx                0x1                              
0xb941                           0FAFDB           0x72        0x70                          imull    %ebx, %ebx                0x1                              
0xb944                           03D3             0x72        0x6a                          addl     %ebx, %edx                0x1                              
0xb946                           0FB65D04         0x72        0x6e                          movzbl   0x4(%ebp), %ebx           0x1                              
0xb94a                           8B4C240C         0x72        0x70                          movl     0xc(%esp), %ecx           0x1                              
0xb94e                           0FB64904         0x72        0x6a                          movzbl   0x4(%ecx), %ecx           0x1                              
0xb952                           03F3             0x72        0x6e                          addl     %ebx, %esi                0x1                              
0xb954                           03F7             0x72        0x70                          addl     %edi, %esi                0x1                              
0xb956                           8D7C0E02         0x72        0x6a                          leal     0x2(%esi, %ecx, 1), %edi  0x1                              
0xb95a                           0FB67003         0x72        0x6e                          movzbl   0x3(%eax), %esi           0x1                              
0xb95e                           C1EF02           0x72        0x70                          shrl     $0x2, %edi                0x1                              
0xb961                           2BFE             0x71        0x6a                          subl     %esi, %edi                0x1                              
0xb963                           0FAFFF           0x71        0x6e                          imull    %edi, %edi                0x1                              
0xb966                           0FB67505         0x71        0x70                          movzbl   0x5(%ebp), %esi           0x1                              
0xb96a                           03DE             0x71        0x6a                          addl     %esi, %ebx                0x1                              
0xb96c                           03D7             0x71        0x6e                          addl     %edi, %edx                0x1                              
0xb96e                           8B7C240C         0x71        0x70                          movl     0xc(%esp), %edi           0x1                              
0xb972                           0FB67F05         0x71        0x6a                          movzbl   0x5(%edi), %edi           0x1                              
0xb976                           03D9             0x71        0x6e                          addl     %ecx, %ebx                0x1                              
0xb978                           0FB64804         0x71        0x70                          movzbl   0x4(%eax), %ecx           0x1                              
0xb97c                           8D5C3B02         0x71        0x6a                          leal     0x2(%ebx, %edi, 1), %ebx  0x1                              
0xb980                           C1EB02           0x72        0x6e                          shrl     $0x2, %ebx                0x1                              
0xb983                           2BD9             0x72        0x70                          subl     %ecx, %ebx                0x1                              
0xb985                           0FAFDB           0x72        0x6a                          imull    %ebx, %ebx                0x1                              
0xb988                           8B4C240C         0x72        0x6e                          movl     0xc(%esp), %ecx           0x1                              
0xb98c                           0FB64906         0x72        0x70                          movzbl   0x6(%ecx), %ecx           0x1                              
0xb990                           03D3             0x72        0x6a                          addl     %ebx, %edx                0x1                              
0xb992                           0FB65D06         0x72        0x6e                          movzbl   0x6(%ebp), %ebx           0x1                              
0xb996                           03F3             0x72        0x70                          addl     %ebx, %esi                0x1                              
0xb998                           03F7             0x72        0x6a                          addl     %edi, %esi                0x1                              
0xb99a                           8D7C0E02         0x72        0x6e                          leal     0x2(%esi, %ecx, 1), %edi  0x1                              
0xb99e                           0FB67005         0x72        0x70                          movzbl   0x5(%eax), %esi           0x1                              
0xb9a2                           C1EF02           0x71        0x6a                          shrl     $0x2, %edi                0x1                              
0xb9a5                           2BFE             0x71        0x6e                          subl     %esi, %edi                0x1                              
0xb9a7                           0FAFFF           0x71        0x70                          imull    %edi, %edi                0x1                              
0xb9aa                           0FB67507         0x71        0x6a                          movzbl   0x7(%ebp), %esi           0x1                              
0xb9ae                           03DE             0x71        0x6e                          addl     %esi, %ebx                0x1                              
0xb9b0                           03D7             0x71        0x70                          addl     %edi, %edx                0x1                              
0xb9b2                           8B7C240C         0x71        0x6a                          movl     0xc(%esp), %edi           0x1                              
0xb9b6                           0FB67F07         0x71        0x6e                          movzbl   0x7(%edi), %edi           0x1                              
0xb9ba                           03D9             0x71        0x70                          addl     %ecx, %ebx                0x1                              
0xb9bc                           0FB64806         0x71        0x6a                          movzbl   0x6(%eax), %ecx           0x1                              
0xb9c0                           8D5C3B02         0x72        0x6e                          leal     0x2(%ebx, %edi, 1), %ebx  0x1                              
0xb9c4                           C1EB02           0x72        0x70                          shrl     $0x2, %ebx                0x1                              
0xb9c7                           2BD9             0x72        0x6a                          subl     %ecx, %ebx                0x1                              
0xb9c9                           0FAFDB           0x72        0x6e                          imull    %ebx, %ebx                0x1                              
0xb9cc                           8B4C240C         0x72        0x70                          movl     0xc(%esp), %ecx           0x1                              
0xb9d0                           0FB64908         0x72        0x6a                          movzbl   0x8(%ecx), %ecx           0x1                              
0xb9d4                           03D3             0x72        0x6e                          addl     %ebx, %edx                0x1                              
0xb9d6                           0FB65D08         0x72        0x70                          movzbl   0x8(%ebp), %ebx           0x1                              
0xb9da                           03F3             0x72        0x6a                          addl     %ebx, %esi                0x1                              
0xb9dc                           03F7             0x72        0x6e                          addl     %edi, %esi                0x1                              
0xb9de                           8D7C0E02         0x72        0x70                          leal     0x2(%esi, %ecx, 1), %edi  0x1                              
0xb9e2                           0FB67007         0x71        0x6a                          movzbl   0x7(%eax), %esi           0x1                              
0xb9e6                           C1EF02           0x71        0x6e                          shrl     $0x2, %edi                0x1                              
0xb9e9                           2BFE             0x71        0x70                          subl     %esi, %edi                0x1                              
0xb9eb                           0FAFFF           0x71        0x6a                          imull    %edi, %edi                0x1                              
0xb9ee                           03D7             0x71        0x6e                          addl     %edi, %edx                0x1                              
0xb9f0                           0FB67D09         0x71        0x70                          movzbl   0x9(%ebp), %edi           0x1                              
0xb9f4                           8B74240C         0x71        0x6a                          movl     0xc(%esp), %esi           0x1                              
0xb9f8                           0FB67609         0x71        0x6e                          movzbl   0x9(%esi), %esi           0x1                              
0xb9fc                           03DF             0x71        0x70                          addl     %edi, %ebx                0x1                              
0xb9fe                           03D9             0x71        0x6a                          addl     %ecx, %ebx                0x1                              
0xba00                           0FB64808         0x72        0x6e                          movzbl   0x8(%eax), %ecx           0x1                              
0xba04                           8D5C3302         0x72        0x70                          leal     0x2(%ebx, %esi, 1), %ebx  0x1                              
0xba08                           C1EB02           0x72        0x6a                          shrl     $0x2, %ebx                0x1                              
0xba0b                           2BD9             0x72        0x6e                          subl     %ecx, %ebx                0x1                              
0xba0d                           0FAFDB           0x72        0x70                          imull    %ebx, %ebx                0x1                              
0xba10                           8B4C240C         0x72        0x6a                          movl     0xc(%esp), %ecx           0x1                              
0xba14                           0FB6490A         0x72        0x6e                          movzbl   0xa(%ecx), %ecx           0x1                              
0xba18                           03D3             0x72        0x70                          addl     %ebx, %edx                0x1                              
0xba1a                           0FB65D0A         0x72        0x6a                          movzbl   0xa(%ebp), %ebx           0x1                              
0xba1e                           03FB             0x72        0x6e                          addl     %ebx, %edi                0x1                              
0xba20                           03FE             0x71        0x70                          addl     %esi, %edi                0x1                              
0xba22                           0FB67009         0x71        0x6a                          movzbl   0x9(%eax), %esi           0x1                              
0xba26                           8D7C0F02         0x71        0x6e                          leal     0x2(%edi, %ecx, 1), %edi  0x1                              
0xba2a                           C1EF02           0x71        0x70                          shrl     $0x2, %edi                0x1                              
0xba2d                           2BFE             0x71        0x6a                          subl     %esi, %edi                0x1                              
0xba2f                           0FAFFF           0x71        0x6e                          imull    %edi, %edi                0x1                              
0xba32                           8B74240C         0x71        0x70                          movl     0xc(%esp), %esi           0x1                              
0xba36                           0FB6760B         0x71        0x6a                          movzbl   0xb(%esi), %esi           0x1                              
0xba3a                           03D7             0x71        0x6e                          addl     %edi, %edx                0x1                              
0xba3c                           0FB67D0B         0x71        0x70                          movzbl   0xb(%ebp), %edi           0x1                              
0xba40                           03DF             0x72        0x6a                          addl     %edi, %ebx                0x1                              
0xba42                           03D9             0x72        0x6e                          addl     %ecx, %ebx                0x1                              
0xba44                           0FB6480A         0x72        0x70                          movzbl   0xa(%eax), %ecx           0x1                              
0xba48                           8D5C3302         0x72        0x6a                          leal     0x2(%ebx, %esi, 1), %ebx  0x1                              
0xba4c                           C1EB02           0x72        0x6e                          shrl     $0x2, %ebx                0x1                              
0xba4f                           2BD9             0x72        0x70                          subl     %ecx, %ebx                0x1                              
0xba51                           0FAFDB           0x72        0x6a                          imull    %ebx, %ebx                0x1                              
0xba54                           8B4C240C         0x72        0x6e                          movl     0xc(%esp), %ecx           0x1                              
0xba58                           0FB6490C         0x72        0x70                          movzbl   0xc(%ecx), %ecx           0x1                              
0xba5c                           03D3             0x72        0x6a                          addl     %ebx, %edx                0x1                              
0xba5e                           0FB65D0C         0x72        0x6e                          movzbl   0xc(%ebp), %ebx           0x1                              
0xba62                           03FB             0x71        0x70                          addl     %ebx, %edi                0x1                              
0xba64                           03FE             0x71        0x6a                          addl     %esi, %edi                0x1                              
0xba66                           0FB6700B         0x71        0x6e                          movzbl   0xb(%eax), %esi           0x1                              
0xba6a                           8D7C0F02         0x71        0x70                          leal     0x2(%edi, %ecx, 1), %edi  0x1                              
0xba6e                           C1EF02           0x71        0x6a                          shrl     $0x2, %edi                0x1                              
0xba71                           2BFE             0x71        0x6e                          subl     %esi, %edi                0x1                              
0xba73                           0FAFFF           0x71        0x70                          imull    %edi, %edi                0x1                              
0xba76                           8B74240C         0x71        0x6a                          movl     0xc(%esp), %esi           0x1                              
0xba7a                           0FB6760D         0x71        0x6e                          movzbl   0xd(%esi), %esi           0x1                              
0xba7e                           03D7             0x71        0x70                          addl     %edi, %edx                0x1                              
0xba80                           0FB67D0D         0x72        0x6a                          movzbl   0xd(%ebp), %edi           0x1                              
0xba84                           03DF             0x72        0x6e                          addl     %edi, %ebx                0x1                              
0xba86                           03D9             0x72        0x70                          addl     %ecx, %ebx                0x1                              
0xba88                           0FB6480C         0x72        0x6a                          movzbl   0xc(%eax), %ecx           0x1                              
0xba8c                           8D5C3302         0x72        0x6e                          leal     0x2(%ebx, %esi, 1), %ebx  0x1                              
0xba90                           C1EB02           0x72        0x70                          shrl     $0x2, %ebx                0x1                              
0xba93                           2BD9             0x72        0x6a                          subl     %ecx, %ebx                0x1                              
0xba95                           0FAFDB           0x72        0x6e                          imull    %ebx, %ebx                0x1                              
0xba98                           8B4C240C         0x72        0x70                          movl     0xc(%esp), %ecx           0x1                              
0xba9c                           0FB6490E         0x72        0x6a                          movzbl   0xe(%ecx), %ecx           0x1                              
0xbaa0                           03D3             0x71        0x6e                          addl     %ebx, %edx                0x1                              
0xbaa2                           0FB65D0E         0x71        0x70                          movzbl   0xe(%ebp), %ebx           0x1                              
0xbaa6                           03FB             0x71        0x6a                          addl     %ebx, %edi                0x1                              
0xbaa8                           03FE             0x71        0x6e                          addl     %esi, %edi                0x1                              
0xbaaa                           0FB6700D         0x71        0x70                          movzbl   0xd(%eax), %esi           0x1                              
0xbaae                           8D7C0F02         0x71        0x6a                          leal     0x2(%edi, %ecx, 1), %edi  0x1                              
0xbab2                           C1EF02           0x71        0x6e                          shrl     $0x2, %edi                0x1                              
0xbab5                           2BFE             0x71        0x70                          subl     %esi, %edi                0x1                              
0xbab7                           0FAFFF           0x71        0x6a                          imull    %edi, %edi                0x1                              
0xbaba                           0FB6750F         0x71        0x6e                          movzbl   0xf(%ebp), %esi           0x1                              
0xbabe                           03DE             0x71        0x70                          addl     %esi, %ebx                0x1                              
0xbac0                           03D7             0x72        0x6a                          addl     %edi, %edx                0x1                              
0xbac2                           8B7C240C         0x72        0x6e                          movl     0xc(%esp), %edi           0x1                              
0xbac6                           0FB67F0F         0x72        0x70                          movzbl   0xf(%edi), %edi           0x1                              
0xbaca                           03D9             0x72        0x6a                          addl     %ecx, %ebx                0x1                              
0xbacc                           0FB6480E         0x72        0x6e                          movzbl   0xe(%eax), %ecx           0x1                              
0xbad0                           8D5C3B02         0x72        0x70                          leal     0x2(%ebx, %edi, 1), %ebx  0x1                              
0xbad4                           C1EB02           0x72        0x6a                          shrl     $0x2, %ebx                0x1                              
0xbad7                           2BD9             0x72        0x6e                          subl     %ecx, %ebx                0x1                              
0xbad9                           0FAFDB           0x72        0x70                          imull    %ebx, %ebx                0x1                              
0xbadc                           0FB64D10         0x72        0x6a                          movzbl   0x10(%ebp), %ecx          0x1                              
0xbae0                           03F1             0x71        0x6e                          addl     %ecx, %esi                0x1                              
0xbae2                           03D3             0x71        0x70                          addl     %ebx, %edx                0x1                              
0xbae4                           8B5C240C         0x71        0x6a                          movl     0xc(%esp), %ebx           0x1                              
0xbae8                           0FB64B10         0x71        0x6e                          movzbl   0x10(%ebx), %ecx          0x1                              
0xbaec                           03F7             0x71        0x70                          addl     %edi, %esi                0x1                              
0xbaee                           895C2408         0x71        0x6a                          movl     %ebx, 0x8(%esp)           0x2                              
0xbaf2                           8D6C0E02         0x71        0x6e                          leal     0x2(%esi, %ecx, 1), %ebp  0x1                              
0xbaf6                           0FB6480F         0x71        0x70                          movzbl   0xf(%eax), %ecx           0x1                              
0xbafa                           C1ED02           0x71        0x6a                          shrl     $0x2, %ebp                0x1                              
0xbafd                           2BE9             0x71        0x6e                          subl     %ecx, %ebp                0x1                              
0xbaff                           0FAFED           0x71        0x70                          imull    %ebp, %ebp                0x1                              
0xbb02                           03D5             0x72        0x6a                          addl     %ebp, %edx                0x1                              
0xbb04                           8B4C242C         0x72        0x6e                          movl     0x2c(%esp), %ecx          0x1                              
0xbb08                           8B6C2438         0x72        0x70                          movl     0x38(%esp), %ebp          0x1                              
0xbb0c                           03D9             0x72        0x6a                          addl     %ecx, %ebx                0x1                              
0xbb0e                           03C1             0x72        0x6e                          addl     %ecx, %eax                0x1                              
0xbb10                           8B4C2404         0x72        0x70                          movl     0x4(%esp), %ecx           0x1                              
0xbb14                           83C101           0x72                                      addl     $0x1, %ecx                0x1                              
0xbb17                           894C2404         0x72        0x6a                          movl     %ecx, 0x4(%esp)           0x2                              
0xbb1b                           3BCD             0x72        0x6e                          cmpl     %ebp, %ecx                0x1                              
0xbb1d                           0F8CAFFDFFFF     0x72        0x70                          jnge     dist2+4bc                 0x1                              0x3
0xbb23  dist2+70d:               8B2C24           0x71        0x6a                          movl     (%esp), %ebp              0x1                              
0xbb26  dist2+710:               8BC2             0x71        0x6e                          movl     %edx, %eax                0x1                              
0xbb28                           83C414           0x71        0x70                          addl     $0x14, %esp               0x1                              
0xbb2b                           5B               0x71                                      popl     %ebx                      0x2                              
0xbb2c                           5E               0x71                                      popl     %esi                      0x2                              
0xbb2d                           5F               0x71                                      popl     %edi                      0x2                              
0xbb2e                           C3               0x71        0x6a                          ret                                0x4                              
0xbb2f  dist2+719:               90               0x71        0x70                          nop                                0x1                              
0xbb30  bdist1:                  57               0x71                                      pushl    %edi                      0x3                              
0xbb31                           56               0x71                                      pushl    %esi                      0x3                              
0xbb32                           55               0x71                                      pushl    %ebp                      0x3                              
0xbb33                           53               0x71        0x6a                          pushl    %ebx                      0x3                              
0xbb34                           83EC38           0x71        0x6e                          subl     $0x38, %esp               0x1                              
0xbb37                           8B4C244C         0x71        0x70                          movl     0x4c(%esp), %ecx          0x1                              
0xbb3b                           8B6C2450         0x71        0x6a                          movl     0x50(%esp), %ebp          0x1                              
0xbb3f                           8B442454         0x71        0x6e                          movl     0x54(%esp), %eax          0x1                              
0xbb43                           8B542458         0x72        0x70                          movl     0x58(%esp), %edx          0x1                              
0xbb47                           8B74245C         0x72        0x6a                          movl     0x5c(%esp), %esi          0x1                              
0xbb4b                           8B7C2464         0x72        0x6e                          movl     0x64(%esp), %edi          0x1                              
0xbb4f                           8B5C2460         0x72        0x70                          movl     0x60(%esp), %ebx          0x1                              
0xbb53                           0FAFDA           0x72                                      imull    %edx, %ebx                0x1                              
0xbb56                           89442420         0x72        0x6a                          movl     %eax, 0x20(%esp)          0x2                              
0xbb5a                           8D0431           0x72        0x6e                          leal     (%ecx, %esi, 1), %eax     0x1                              
0xbb5d                           03D9             0x72        0x70                          addl     %ecx, %ebx                0x1                              
0xbb5f                           8D341E           0x72                                      leal     (%esi, %ebx, 1), %esi     0x1                              
0xbb62                           8974241C         0x71        0x6a                          movl     %esi, 0x1c(%esp)          0x2                              
0xbb66                           8D743D00         0x71        0x70                          leal     (%ebp, %edi, 1), %esi     0x1                              
0xbb6a                           89742414         0x71        0x6a                          movl     %esi, 0x14(%esp)          0x2                              
0xbb6e                           8B742468         0x71        0x6e                          movl     0x68(%esp), %esi          0x1                              
0xbb72                           0FAFF2           0x71        0x70                          imull    %edx, %esi                0x1                              
0xbb75                           03F5             0x71        0x6a                          addl     %ebp, %esi                0x1                              
0xbb77                           8D1437           0x71        0x6e                          leal     (%edi, %esi, 1), %edx     0x1                              
0xbb7a                           8B7C2414         0x71        0x70                          movl     0x14(%esp), %edi          0x1                              
0xbb7e                           89542424         0x71        0x6a                          movl     %edx, 0x24(%esp)          0x2                              
0xbb82                           33D2             0x72        0x70                          xorl     %edx, %edx                0x1                              
0xbb84                           89542404         0x72        0x6a                          movl     %edx, 0x4(%esp)           0x2                              
0xbb88                           33D2             0x72        0x70                          xorl     %edx, %edx                0x1                              
0xbb8a                           891424           0x72        0x6a                          movl     %edx, (%esp)              0x2                              
0xbb8d                           8B54246C         0x72        0x6e                          movl     0x6c(%esp), %edx          0x1                              
0xbb91                           85D2             0x72        0x70                          testl    %edx, %edx                0x1                              
0xbb93                           8B54241C         0x72        0x6a                          movl     0x1c(%esp), %edx          0x1                              
0xbb97                           0F8E5C010000     0x72        0x70                          jle      bdist1+1c9                0x1                              0x3
0xbb9d  bdist1+6d:               89742410         0x72        0x6a                          movl     %esi, 0x10(%esp)          0x2                              
0xbba1                           8B3424           0x71        0x70                          movl     (%esp), %esi              0x1                              
0xbba4                           897C2414         0x71                                      movl     %edi, 0x14(%esp)          0x2                              
0xbba8                           896C240C         0x71                                      movl     %ebp, 0xc(%esp)           0x2                              
0xbbac  bdist1+7c:               893424           0x71                                      movl     %esi, (%esp)              0x2                              
0xbbaf                           8954241C         0x71                                      movl     %edx, 0x1c(%esp)          0x2                              
0xbbb3                           895C2418         0x71        0x6a                          movl     %ebx, 0x18(%esp)          0x2                              
0xbbb7                           33ED             0x71        0x70                          xorl     %ebp, %ebp                0x1                              
0xbbb9                           896C2408         0x71        0x6a                          movl     %ebp, 0x8(%esp)           0x2                              
0xbbbd  bdist1+8d:               8B542418         0x71        0x70                          movl     0x18(%esp), %edx          0x1                              
0xbbc1                           89442428         0x72        0x6a                          movl     %eax, 0x28(%esp)          0x2                              
0xbbc5                           0FB600           0x72        0x6e                          movzbl   (%eax), %eax              0x1                              
0xbbc8                           8BFA             0x72        0x70                          movl     %edx, %edi                0x1                              
0xbbca                           83C201           0x72                                      addl     $0x1, %edx                0x1                              
0xbbcd                           89542418         0x72        0x6a                          movl     %edx, 0x18(%esp)          0x2                              
0xbbd1                           8B54241C         0x72        0x6e                          movl     0x1c(%esp), %edx          0x1                              
0xbbd5                           8BF2             0x72        0x70                          movl     %edx, %esi                0x1                              
0xbbd7                           83C201           0x72                                      addl     $0x1, %edx                0x1                              
0xbbda                           8954241C         0x72        0x6a                          movl     %edx, 0x1c(%esp)          0x2                              
0xbbde                           8B54240C         0x72        0x6e                          movl     0xc(%esp), %edx           0x1                              
0xbbe2                           8BDA             0x71        0x70                          movl     %edx, %ebx                0x1                              
0xbbe4                           83C201           0x71                                      addl     $0x1, %edx                0x1                              
0xbbe7                           8954240C         0x71        0x6a                          movl     %edx, 0xc(%esp)           0x2                              
0xbbeb                           8B542414         0x71        0x70                          movl     0x14(%esp), %edx          0x1                              
0xbbef                           8954242C         0x71        0x6a                          movl     %edx, 0x2c(%esp)          0x2                              
0xbbf3                           83C201           0x71        0x70                          addl     $0x1, %edx                0x1                              
0xbbf6                           89542414         0x71        0x6a                          movl     %edx, 0x14(%esp)          0x2                              
0xbbfa                           8B542410         0x71        0x70                          movl     0x10(%esp), %edx          0x1                              
0xbbfe                           89542430         0x71        0x6a                          movl     %edx, 0x30(%esp)          0x2                              
0xbc02                           83C201           0x72        0x70                          addl     $0x1, %edx                0x1                              
0xbc05                           89542410         0x72        0x6a                          movl     %edx, 0x10(%esp)          0x2                              
0xbc09                           8B542424         0x72        0x70                          movl     0x24(%esp), %edx          0x1                              
0xbc0d                           89542434         0x72        0x6a                          movl     %edx, 0x34(%esp)          0x2                              
0xbc11                           83C201           0x72        0x70                          addl     $0x1, %edx                0x1                              
0xbc14                           89542424         0x72        0x6a                          movl     %edx, 0x24(%esp)          0x2                              
0xbc18                           8B542420         0x72        0x6e                          movl     0x20(%esp), %edx          0x1                              
0xbc1c                           8BEA             0x72        0x70                          movl     %edx, %ebp                0x1                              
0xbc1e                           83C201           0x72                                      addl     $0x1, %edx                0x1                              
0xbc21                           89542420         0x71        0x6a                          movl     %edx, 0x20(%esp)          0x2                              
0xbc25                           0FB611           0x71        0x6e                          movzbl   (%ecx), %edx              0x1                              
0xbc28                           03D0             0x71        0x70                          addl     %eax, %edx                0x1                              
0xbc2a                           0FB607           0x71        0x6a                          movzbl   (%edi), %eax              0x1                              
0xbc2d                           03D0             0x71        0x6e                          addl     %eax, %edx                0x1                              
0xbc2f                           0FB606           0x71        0x70                          movzbl   (%esi), %eax              0x1                              
0xbc32                           0FB633           0x71        0x6a                          movzbl   (%ebx), %esi              0x1                              
0xbc35                           8D7C0202         0x71        0x6e                          leal     0x2(%edx, %eax, 1), %edi  0x1                              
0xbc39                           8B44242C         0x71        0x70                          movl     0x2c(%esp), %eax          0x1                              
0xbc3d                           0FB600           0x71        0x6a                          movzbl   (%eax), %eax              0x1                              
0xbc40                           0FB65500         0x72        0x6e                          movzbl   (%ebp), %edx              0x1                              
0xbc44                           C1EF02           0x72        0x70                          shrl     $0x2, %edi                0x1                              
0xbc47                           03F0             0x72        0x6a                          addl     %eax, %esi                0x1                              
0xbc49                           8B442430         0x72        0x6e                          movl     0x30(%esp), %eax          0x1                              
0xbc4d                           0FB600           0x72        0x70                          movzbl   (%eax), %eax              0x1                              
0xbc50                           03F0             0x72        0x6a                          addl     %eax, %esi                0x1                              
0xbc52                           83C101           0x72        0x6e                          addl     $0x1, %ecx                0x1                              
0xbc55                           8B442434         0x72        0x70                          movl     0x34(%esp), %eax          0x1                              
0xbc59                           0FB600           0x72        0x6a                          movzbl   (%eax), %eax              0x1                              
0xbc5c                           8D440602         0x72        0x6e                          leal     0x2(%esi, %eax, 1), %eax  0x1                              
0xbc60                           C1E802           0x71        0x70                          shrl     $0x2, %eax                0x1                              
0xbc63                           8D440701         0x71        0x6a                          leal     0x1(%edi, %eax, 1), %eax  0x1                              
0xbc67                           D1E8             0x71        0x6e                          shrl     0x1, %eax                 0x1                              
0xbc69                           2BC2             0x71        0x70                          subl     %edx, %eax                0x1                              
0xbc6b                           99               0x71        0x6a                          cltd                               0x1                              
0xbc6c                           33C2             0x71        0x6e                          xorl     %edx, %eax                0x1                              
0xbc6e                           2BC2             0x71        0x70                          subl     %edx, %eax                0x1                              
0xbc70                           8B542408         0x71                                      movl     0x8(%esp), %edx           0x1                              
0xbc74                           01442404         0x71        0x6a                          addl     %eax, 0x4(%esp)           0x4                              
0xbc78                           83C201           0x71        0x6e                          addl     $0x1, %edx                0x1                              
0xbc7b                           8B442428         0x71        0x70                          movl     0x28(%esp), %eax          0x1                              
0xbc7f                           89542408         0x71        0x6a                          movl     %edx, 0x8(%esp)           0x2                              
0xbc83                           83C001           0x72        0x6e                          addl     $0x1, %eax                0x1                              
0xbc86                           83FA10           0x72        0x70                          cmpl     $0x10, %edx               0x1                              
0xbc89                           0F8C2EFFFFFF     0x72                                      jnge     bdist1+8d                 0x1                              0x3
0xbc8f  bdist1+15f:              8B3424           0x72        0x6a                          movl     (%esp), %esi              0x1                              
0xbc92                           8B54241C         0x72        0x6e                          movl     0x1c(%esp), %edx          0x1                              
0xbc96                           8B5C2418         0x72        0x70                          movl     0x18(%esp), %ebx          0x1                              
0xbc9a                           8B6C2458         0x72        0x6a                          movl     0x58(%esp), %ebp          0x1                              
0xbc9e                           8D4C29F0         0x72        0x6e                          leal     -16(%ecx, %ebp, 1), %ecx  0x1                              
0xbca2                           8D4405F0         0x71        0x70                          leal     -16(%ebp, %eax, 1), %eax  0x1                              
0xbca6                           8B7C2420         0x71        0x6a                          movl     0x20(%esp), %edi          0x1                              
0xbcaa                           8D7C3DF0         0x71        0x70                          leal     -16(%ebp, %edi, 1), %edi  0x1                              
0xbcae                           897C2420         0x71        0x6a                          movl     %edi, 0x20(%esp)          0x2                              
0xbcb2                           8B7C240C         0x71        0x6e                          movl     0xc(%esp), %edi           0x1                              
0xbcb6                           8D5C1DF0         0x71        0x70                          leal     -16(%ebp, %ebx, 1), %ebx  0x1                              
0xbcba                           8D5415F0         0x71        0x6a                          leal     -16(%ebp, %edx, 1), %edx  0x1                              
0xbcbe                           8D7C3DF0         0x71        0x70                          leal     -16(%ebp, %edi, 1), %edi  0x1                              
0xbcc2                           897C240C         0x72        0x6a                          movl     %edi, 0xc(%esp)           0x2                              
0xbcc6                           83C601           0x72        0x6e                          addl     $0x1, %esi                0x1                              
0xbcc9                           8B7C2414         0x72        0x70                          movl     0x14(%esp), %edi          0x1                              
0xbccd                           8D7C3DF0         0x72                                      leal     -16(%ebp, %edi, 1), %edi  0x1                              
0xbcd1                           897C2414         0x72        0x6a                          movl     %edi, 0x14(%esp)          0x2                              
0xbcd5                           8B7C2410         0x72        0x6e                          movl     0x10(%esp), %edi          0x1                              
0xbcd9                           8D7C3DF0         0x72        0x70                          leal     -16(%ebp, %edi, 1), %edi  0x1                              
0xbcdd                           897C2410         0x72        0x6a                          movl     %edi, 0x10(%esp)          0x2                              
0xbce1                           8B7C2424         0x71        0x6e                          movl     0x24(%esp), %edi          0x1                              
0xbce5                           8D6C3DF0         0x71        0x70                          leal     -16(%ebp, %edi, 1), %ebp  0x1                              
0xbce9                           896C2424         0x71        0x6a                          movl     %ebp, 0x24(%esp)          0x2                              
0xbced                           8B6C246C         0x71        0x6e                          movl     0x6c(%esp), %ebp          0x1                              
0xbcf1                           3BF5             0x71        0x70                          cmpl     %ebp, %esi                0x1                              
0xbcf3                           0F8CB3FEFFFF     0x71                                      jnge     bdist1+7c                 0x1                              0x3
0xbcf9  bdist1+1c9:              8B442404         0x71        0x6a                          movl     0x4(%esp), %eax           0x1                              
0xbcfd                           83C438           0x71        0x70                          addl     $0x38, %esp               0x1                              
0xbd00                           5B               0x72                                      popl     %ebx                      0x2                              
0xbd01                           5D               0x72                                      popl     %ebp                      0x2                              
0xbd02                           5E               0x72                                      popl     %esi                      0x2                              
0xbd03                           5F               0x72                                      popl     %edi                      0x2                              
0xbd04                           C3               0x72        0x6a                          ret                                0x4                              
0xbd05  bdist1+1d5:              90               0x72        0x70                          nop                                0x1                              
0xbd06  bdist2:                  57               0x72                                      pushl    %edi                      0x3                              
0xbd07                           56               0x72                                      pushl    %esi                      0x3                              
0xbd08                           55               0x72                                      pushl    %ebp                      0x3                              
0xbd09                           53               0x72        0x6a                          pushl    %ebx                      0x3                              
0xbd0a                           83EC38           0x72        0x6e                          subl     $0x38, %esp               0x1                              
0xbd0d                           8B5C244C         0x72        0x70                          movl     0x4c(%esp), %ebx          0x1                              
0xbd11                           8B6C2450         0x72        0x6a                          movl     0x50(%esp), %ebp          0x1                              
0xbd15                           8B4C2454         0x72        0x6e                          movl     0x54(%esp), %ecx          0x1                              
0xbd19                           8B442458         0x72        0x70                          movl     0x58(%esp), %eax          0x1                              
0xbd1d                           8B7C245C         0x72        0x6a                          movl     0x5c(%esp), %edi          0x1                              
0xbd21                           8B542464         0x71        0x6e                          movl     0x64(%esp), %edx          0x1                              
0xbd25                           8B742460         0x71        0x70                          movl     0x60(%esp), %esi          0x1                              
0xbd29                           0FAFF0           0x71                                      imull    %eax, %esi                0x1                              
0xbd2c                           894C2418         0x71        0x6a                          movl     %ecx, 0x18(%esp)          0x2                              
0xbd30                           8D0C3B           0x71        0x6e                          leal     (%ebx, %edi, 1), %ecx     0x1                              
0xbd33                           03F3             0x71        0x70                          addl     %ebx, %esi                0x1                              
0xbd35                           8D3C37           0x71                                      leal     (%edi, %esi, 1), %edi     0x1                              
0xbd38                           897C2420         0x71        0x6a                          movl     %edi, 0x20(%esp)          0x2                              
0xbd3c                           8D7C1500         0x71        0x70                          leal     (%ebp, %edx, 1), %edi     0x1                              
0xbd40                           897C2424         0x72        0x6a                          movl     %edi, 0x24(%esp)          0x2                              
0xbd44                           8B7C2468         0x72        0x6e                          movl     0x68(%esp), %edi          0x1                              
0xbd48                           0FAFF8           0x72        0x70                          imull    %eax, %edi                0x1                              
0xbd4b                           03FD             0x72        0x6a                          addl     %ebp, %edi                0x1                              
0xbd4d                           8D043A           0x72        0x6e                          leal     (%edx, %edi, 1), %eax     0x1                              
0xbd50                           8B542424         0x72        0x70                          movl     0x24(%esp), %edx          0x1                              
0xbd54                           8944241C         0x72        0x6a                          movl     %eax, 0x1c(%esp)          0x2                              
0xbd58                           33C0             0x72        0x70                          xorl     %eax, %eax                0x1                              
0xbd5a                           89442404         0x72        0x6a                          movl     %eax, 0x4(%esp)           0x2                              
0xbd5e                           33C0             0x72        0x70                          xorl     %eax, %eax                0x1                              
0xbd60                           890424           0x71        0x6a                          movl     %eax, (%esp)              0x2                              
0xbd63                           8B44246C         0x71        0x6e                          movl     0x6c(%esp), %eax          0x1                              
0xbd67                           85C0             0x71        0x70                          testl    %eax, %eax                0x1                              
0xbd69                           8B442420         0x71        0x6a                          movl     0x20(%esp), %eax          0x1                              
0xbd6d                           0F8E4A010000     0x71        0x70                          jle      bdist2+1b7                0x1                              0x3
0xbd73  bdist2+6d:               897C2410         0x71                                      movl     %edi, 0x10(%esp)          0x2                              
0xbd77                           89742414         0x71        0x6a                          movl     %esi, 0x14(%esp)          0x2                              
0xbd7b                           8B3424           0x71        0x70                          movl     (%esp), %esi              0x1                              
0xbd7e                           896C240C         0x71                                      movl     %ebp, 0xc(%esp)           0x2                              
0xbd82  bdist2+7c:               893424           0x72        0x6a                          movl     %esi, (%esp)              0x2                              
0xbd85                           33ED             0x72        0x70                          xorl     %ebp, %ebp                0x1                              
0xbd87                           896C2408         0x72        0x6a                          movl     %ebp, 0x8(%esp)           0x2                              
0xbd8b  bdist2+85:               8B742414         0x72        0x6e                          movl     0x14(%esp), %esi          0x1                              
0xbd8f                           8B7C240C         0x72        0x70                          movl     0xc(%esp), %edi           0x1                              
0xbd93                           894C2428         0x72        0x6a                          movl     %ecx, 0x28(%esp)          0x2                              
0xbd97                           0FB609           0x72        0x6e                          movzbl   (%ecx), %ecx              0x1                              
0xbd9a                           8BEE             0x72        0x70                          movl     %esi, %ebp                0x1                              
0xbd9c                           8954242C         0x72        0x6a                          movl     %edx, 0x2c(%esp)          0x2                              
0xbda0                           83C601           0x71        0x70                          addl     $0x1, %esi                0x1                              
0xbda3                           89742414         0x71        0x6a                          movl     %esi, 0x14(%esp)          0x2                              
0xbda7                           8BF0             0x71        0x6e                          movl     %eax, %esi                0x1                              
0xbda9                           83C001           0x71        0x70                          addl     $0x1, %eax                0x1                              
0xbdac                           83C201           0x71                                      addl     $0x1, %edx                0x1                              
0xbdaf                           89442420         0x71        0x6a                          movl     %eax, 0x20(%esp)          0x2                              
0xbdb3                           8BC7             0x71        0x70                          movl     %edi, %eax                0x1                              
0xbdb5                           89542424         0x71        0x6a                          movl     %edx, 0x24(%esp)          0x2                              
0xbdb9                           8B542410         0x71        0x6e                          movl     0x10(%esp), %edx          0x1                              
0xbdbd                           83C701           0x71        0x70                          addl     $0x1, %edi                0x1                              
0xbdc0                           897C240C         0x72        0x6a                          movl     %edi, 0xc(%esp)           0x2                              
0xbdc4                           8B7C2418         0x72        0x70                          movl     0x18(%esp), %edi          0x1                              
0xbdc8                           89542430         0x72        0x6a                          movl     %edx, 0x30(%esp)          0x2                              
0xbdcc                           83C201           0x72        0x70                          addl     $0x1, %edx                0x1                              
0xbdcf                           89542410         0x72        0x6a                          movl     %edx, 0x10(%esp)          0x2                              
0xbdd3                           8B54241C         0x72        0x70                          movl     0x1c(%esp), %edx          0x1                              
0xbdd7                           89542434         0x72        0x6a                          movl     %edx, 0x34(%esp)          0x2                              
0xbddb                           83C201           0x72        0x70                          addl     $0x1, %edx                0x1                              
0xbdde                           8954241C         0x72        0x6a                          movl     %edx, 0x1c(%esp)          0x2                              
0xbde2                           8BD7             0x71        0x6e                          movl     %edi, %edx                0x1                              
0xbde4                           83C701           0x71        0x70                          addl     $0x1, %edi                0x1                              
0xbde7                           897C2418         0x71        0x6a                          movl     %edi, 0x18(%esp)          0x2                              
0xbdeb                           0FB63B           0x71        0x6e                          movzbl   (%ebx), %edi              0x1                              
0xbdee                           03F9             0x71        0x70                          addl     %ecx, %edi                0x1                              
0xbdf0                           0FB64D00         0x71        0x6a                          movzbl   (%ebp), %ecx              0x1                              
0xbdf4                           03F9             0x71        0x6e                          addl     %ecx, %edi                0x1                              
0xbdf6                           0FB60E           0x71        0x70                          movzbl   (%esi), %ecx              0x1                              
0xbdf9                           8D7C0F02         0x71        0x6a                          leal     0x2(%edi, %ecx, 1), %edi  0x1                              
0xbdfd                           0FB608           0x71        0x6e                          movzbl   (%eax), %ecx              0x1                              
0xbe00                           C1EF02           0x72        0x70                          shrl     $0x2, %edi                0x1                              
0xbe03                           8B44242C         0x72        0x6a                          movl     0x2c(%esp), %eax          0x1                              
0xbe07                           0FB600           0x72        0x6e                          movzbl   (%eax), %eax              0x1                              
0xbe0a                           03C8             0x72        0x70                          addl     %eax, %ecx                0x1                              
0xbe0c                           8B442430         0x72        0x6a                          movl     0x30(%esp), %eax          0x1                              
0xbe10                           0FB600           0x72        0x6e                          movzbl   (%eax), %eax              0x1                              
0xbe13                           03C8             0x72        0x70                          addl     %eax, %ecx                0x1                              
0xbe15                           8B442434         0x72        0x6a                          movl     0x34(%esp), %eax          0x1                              
0xbe19                           0FB600           0x72        0x6e                          movzbl   (%eax), %eax              0x1                              
0xbe1c                           8D440102         0x72        0x70                          leal     0x2(%ecx, %eax, 1), %eax  0x1                              
0xbe20                           C1E802           0x71        0x6a                          shrl     $0x2, %eax                0x1                              
0xbe23                           8D4C0701         0x71        0x6e                          leal     0x1(%edi, %eax, 1), %ecx  0x1                              
0xbe27                           0FB602           0x71        0x70                          movzbl   (%edx), %eax              0x1                              
0xbe2a                           8B542424         0x71        0x6a                          movl     0x24(%esp), %edx          0x1                              
0xbe2e                           D1E9             0x71        0x6e                          shrl     0x1, %ecx                 0x1                              
0xbe30                           2BC8             0x71        0x70                          subl     %eax, %ecx                0x1                              
0xbe32                           0FAFC9           0x71        0x6a                          imull    %ecx, %ecx                0x1                              
0xbe35                           8B442408         0x71        0x70                          movl     0x8(%esp), %eax           0x1                              
0xbe39                           014C2404         0x71        0x6a                          addl     %ecx, 0x4(%esp)           0x4                              
0xbe3d                           8B4C2428         0x71        0x6e                          movl     0x28(%esp), %ecx          0x1                              
0xbe41                           83C301           0x72        0x70                          addl     $0x1, %ebx                0x1                              
0xbe44                           83C101           0x72        0x6a                          addl     $0x1, %ecx                0x1                              
0xbe47                           83C001           0x72        0x70                          addl     $0x1, %eax                0x1                              
0xbe4a                           89442408         0x72        0x6a                          movl     %eax, 0x8(%esp)           0x2                              
0xbe4e                           83F810           0x72        0x6e                          cmpl     $0x10, %eax               0x1                              
0xbe51                           8B442420         0x72        0x70                          movl     0x20(%esp), %eax          0x1                              
0xbe55                           0F8C30FFFFFF     0x72                                      jnge     bdist2+85                 0x1                              0x3
0xbe5b  bdist2+155:              8B3424           0x72        0x6a                          movl     (%esp), %esi              0x1                              
0xbe5e                           8B6C2458         0x72        0x6e                          movl     0x58(%esp), %ebp          0x1                              
0xbe62                           8B7C2418         0x71        0x70                          movl     0x18(%esp), %edi          0x1                              
0xbe66                           8D7C3DF0         0x71        0x6a                          leal     -16(%ebp, %edi, 1), %edi  0x1                              
0xbe6a                           8D5C2BF0         0x71        0x6e                          leal     -16(%ebx, %ebp, 1), %ebx  0x1                              
0xbe6e                           8D4C0DF0         0x71        0x70                          leal     -16(%ebp, %ecx, 1), %ecx  0x1                              
0xbe72                           897C2418         0x71        0x6a                          movl     %edi, 0x18(%esp)          0x2                              
0xbe76                           8B7C2414         0x71        0x6e                          movl     0x14(%esp), %edi          0x1                              
0xbe7a                           8D7C3DF0         0x71        0x70                          leal     -16(%ebp, %edi, 1), %edi  0x1                              
0xbe7e                           8D4405F0         0x71        0x6a                          leal     -16(%ebp, %eax, 1), %eax  0x1                              
0xbe82                           8D5415F0         0x72        0x70                          leal     -16(%ebp, %edx, 1), %edx  0x1                              
0xbe86                           897C2414         0x72        0x6a                          movl     %edi, 0x14(%esp)          0x2                              
0xbe8a                           8B7C240C         0x72        0x6e                          movl     0xc(%esp), %edi           0x1                              
0xbe8e                           8D7C3DF0         0x72        0x70                          leal     -16(%ebp, %edi, 1), %edi  0x1                              
0xbe92                           83C601           0x72                                      addl     $0x1, %esi                0x1                              
0xbe95                           897C240C         0x72        0x6a                          movl     %edi, 0xc(%esp)           0x2                              
0xbe99                           8B7C2410         0x72        0x6e                          movl     0x10(%esp), %edi          0x1                              
0xbe9d                           8D7C3DF0         0x72        0x70                          leal     -16(%ebp, %edi, 1), %edi  0x1                              
0xbea1                           897C2410         0x71        0x6a                          movl     %edi, 0x10(%esp)          0x2                              
0xbea5                           8B7C241C         0x71        0x6e                          movl     0x1c(%esp), %edi          0x1                              
0xbea9                           8D6C3DF0         0x71        0x70                          leal     -16(%ebp, %edi, 1), %ebp  0x1                              
0xbead                           896C241C         0x71        0x6a                          movl     %ebp, 0x1c(%esp)          0x2                              
0xbeb1                           8B6C246C         0x71        0x6e                          movl     0x6c(%esp), %ebp          0x1                              
0xbeb5                           3BF5             0x71        0x70                          cmpl     %ebp, %esi                0x1                              
0xbeb7                           0F8CC5FEFFFF     0x71                                      jnge     bdist2+7c                 0x1                              0x3
0xbebd  bdist2+1b7:              8B442404         0x71        0x6a                          movl     0x4(%esp), %eax           0x1                              
0xbec1                           83C438           0x72        0x70                          addl     $0x38, %esp               0x1                              
0xbec4                           5B               0x72                                      popl     %ebx                      0x2                              
0xbec5                           5D               0x72                                      popl     %ebp                      0x2                              
0xbec6                           5E               0x72                                      popl     %esi                      0x2                              
0xbec7                           5F               0x72                                      popl     %edi                      0x2                              
0xbec8                           C3               0x72        0x6a                          ret                                0x4                              
0xbec9  bdist2+1c3:              90               0x72        0x70                          nop                                0x1                              
0xbeca  variance:                57               0x72                                      pushl    %edi                      0x3                              
0xbecb                           56               0x72                                      pushl    %esi                      0x3                              
0xbecc                           53               0x72        0x6a                          pushl    %ebx                      0x3                              
0xbecd                           8B542410         0x72        0x6e                          movl     0x10(%esp), %edx          0x1                              
0xbed1                           8B742414         0x72        0x70                          movl     0x14(%esp), %esi          0x1                              
0xbed5                           33DB             0x72        0x6a                          xorl     %ebx, %ebx                0x1                              
0xbed7                           33C9             0x72        0x6e                          xorl     %ecx, %ecx                0x1                              
0xbed9                           33C0             0x72        0x70                          xorl     %eax, %eax                0x1                              
0xbedb  variance+11:             0FB63A           0x72        0x6a                          movzbl   (%edx), %edi              0x1                              
0xbede                           03CF             0x72        0x6e                          addl     %edi, %ecx                0x1                              
0xbee0                           0FAFFF           0x71        0x70                          imull    %edi, %edi                0x1                              
0xbee3                           83C001           0x71        0x6a                          addl     $0x1, %eax                0x1                              
0xbee6                           03DF             0x71        0x6e                          addl     %edi, %ebx                0x1                              
0xbee8                           0FB67A01         0x71        0x70                          movzbl   0x1(%edx), %edi           0x1                              
0xbeec                           03CF             0x71        0x6a                          addl     %edi, %ecx                0x1                              
0xbeee                           0FAFFF           0x71        0x6e                          imull    %edi, %edi                0x1                              
0xbef1                           03DF             0x71        0x70                          addl     %edi, %ebx                0x1                              
0xbef3                           0FB67A02         0x71        0x6a                          movzbl   0x2(%edx), %edi           0x1                              
0xbef7                           03CF             0x71        0x6e                          addl     %edi, %ecx                0x1                              
0xbef9                           0FAFFF           0x71        0x70                          imull    %edi, %edi                0x1                              
0xbefc                           03DF             0x71        0x6a                          addl     %edi, %ebx                0x1                              
0xbefe                           0FB67A03         0x71        0x6e                          movzbl   0x3(%edx), %edi           0x1                              
0xbf02                           03CF             0x72        0x70                          addl     %edi, %ecx                0x1                              
0xbf04                           0FAFFF           0x72        0x6a                          imull    %edi, %edi                0x1                              
0xbf07                           03DF             0x72        0x6e                          addl     %edi, %ebx                0x1                              
0xbf09                           0FB67A04         0x72        0x70                          movzbl   0x4(%edx), %edi           0x1                              
0xbf0d                           03CF             0x72        0x6a                          addl     %edi, %ecx                0x1                              
0xbf0f                           0FAFFF           0x72        0x6e                          imull    %edi, %edi                0x1                              
0xbf12                           03DF             0x72        0x70                          addl     %edi, %ebx                0x1                              
0xbf14                           0FB67A05         0x72        0x6a                          movzbl   0x5(%edx), %edi           0x1                              
0xbf18                           03CF             0x72        0x6e                          addl     %edi, %ecx                0x1                              
0xbf1a                           0FAFFF           0x72        0x70                          imull    %edi, %edi                0x1                              
0xbf1d                           03DF             0x72        0x6a                          addl     %edi, %ebx                0x1                              
0xbf1f                           0FB67A06         0x72        0x6e                          movzbl   0x6(%edx), %edi           0x1                              
0xbf23                           03CF             0x71        0x70                          addl     %edi, %ecx                0x1                              
0xbf25                           0FAFFF           0x71        0x6a                          imull    %edi, %edi                0x1                              
0xbf28                           03DF             0x71        0x6e                          addl     %edi, %ebx                0x1                              
0xbf2a                           0FB67A07         0x71        0x70                          movzbl   0x7(%edx), %edi           0x1                              
0xbf2e                           03CF             0x71        0x6a                          addl     %edi, %ecx                0x1                              
0xbf30                           0FAFFF           0x71        0x6e                          imull    %edi, %edi                0x1                              
0xbf33                           03DF             0x71        0x70                          addl     %edi, %ebx                0x1                              
0xbf35                           0FB67A08         0x71        0x6a                          movzbl   0x8(%edx), %edi           0x1                              
0xbf39                           03CF             0x71        0x6e                          addl     %edi, %ecx                0x1                              
0xbf3b                           0FAFFF           0x71        0x70                          imull    %edi, %edi                0x1                              
0xbf3e                           03DF             0x71        0x6a                          addl     %edi, %ebx                0x1                              
0xbf40                           0FB67A09         0x72        0x6e                          movzbl   0x9(%edx), %edi           0x1                              
0xbf44                           03CF             0x72        0x70                          addl     %edi, %ecx                0x1                              
0xbf46                           0FAFFF           0x72        0x6a                          imull    %edi, %edi                0x1                              
0xbf49                           03DF             0x72        0x6e                          addl     %edi, %ebx                0x1                              
0xbf4b                           0FB67A0A         0x72        0x70                          movzbl   0xa(%edx), %edi           0x1                              
0xbf4f                           03CF             0x72        0x6a                          addl     %edi, %ecx                0x1                              
0xbf51                           0FAFFF           0x72        0x6e                          imull    %edi, %edi                0x1                              
0xbf54                           03DF             0x72        0x70                          addl     %edi, %ebx                0x1                              
0xbf56                           0FB67A0B         0x72        0x6a                          movzbl   0xb(%edx), %edi           0x1                              
0xbf5a                           03CF             0x72        0x6e                          addl     %edi, %ecx                0x1                              
0xbf5c                           0FAFFF           0x72        0x70                          imull    %edi, %edi                0x1                              
0xbf5f                           03DF             0x72        0x6a                          addl     %edi, %ebx                0x1                              
0xbf61                           0FB67A0C         0x71        0x6e                          movzbl   0xc(%edx), %edi           0x1                              
0xbf65                           03CF             0x71        0x70                          addl     %edi, %ecx                0x1                              
0xbf67                           0FAFFF           0x71        0x6a                          imull    %edi, %edi                0x1                              
0xbf6a                           03DF             0x71        0x6e                          addl     %edi, %ebx                0x1                              
0xbf6c                           0FB67A0D         0x71        0x70                          movzbl   0xd(%edx), %edi           0x1                              
0xbf70                           03CF             0x71        0x6a                          addl     %edi, %ecx                0x1                              
0xbf72                           0FAFFF           0x71        0x6e                          imull    %edi, %edi                0x1                              
0xbf75                           03DF             0x71        0x70                          addl     %edi, %ebx                0x1                              
0xbf77                           0FB67A0E         0x71        0x6a                          movzbl   0xe(%edx), %edi           0x1                              
0xbf7b                           03CF             0x71        0x6e                          addl     %edi, %ecx                0x1                              
0xbf7d                           0FAFFF           0x71        0x70                          imull    %edi, %edi                0x1                              
0xbf80                           03DF             0x72        0x6a                          addl     %edi, %ebx                0x1                              
0xbf82                           0FB67A0F         0x72        0x6e                          movzbl   0xf(%edx), %edi           0x1                              
0xbf86                           03CF             0x72        0x70                          addl     %edi, %ecx                0x1                              
0xbf88                           0FAFFF           0x72        0x6a                          imull    %edi, %edi                0x1                              
0xbf8b                           8D541610         0x72        0x6e                          leal     0x10(%esi, %edx, 1), %edx 0x1                              
0xbf8f                           83C2F0           0x72        0x70                          addl     $-16, %edx                0x1                              
0xbf92                           03DF             0x72        0x6a                          addl     %edi, %ebx                0x1                              
0xbf94                           83F810           0x72        0x6e                          cmpl     $0x10, %eax               0x1                              
0xbf97                           0F8C3EFFFFFF     0x72        0x70                          jnge     variance+11               0x1                              0x3
0xbf9d  variance+d3:             0FAFC9           0x72        0x6a                          imull    %ecx, %ecx                0x1                              
0xbfa0                           C1E908           0x71        0x6e                          shrl     $0x8, %ecx                0x1                              
0xbfa3                           2BD9             0x71        0x70                          subl     %ecx, %ebx                0x1                              
0xbfa5                           8BC3             0x71                                      movl     %ebx, %eax                0x1                              
0xbfa7                           5B               0x71                                      popl     %ebx                      0x2                              
0xbfa8                           5E               0x71                                      popl     %esi                      0x2                              
0xbfa9                           5F               0x71                                      popl     %edi                      0x2                              
0xbfaa                           C3               0x71        0x6a                          ret                                0x4                              
0xbfab  variance+e1:             90               0x71        0x70                          nop                                0x1                              
